(lp0
(S"you'd think by now america would have had enough of plucky british eccentrics with hearts of gold . yet the act is still charming here . "
p1
S'pos'
p2
tp3
a(S"the story loses its bite in a last-minute happy ending that's even less plausible than the rest of the picture . much of the way , though , this is a refreshingly novel ride . "
p4
g2
tp5
a(S'merely as a technical , logistical feat , russian ark marks a cinematic milestone . '
p6
g2
tp7
a(S'gooding offers a desperately ingratiating performance . '
p8
S'neg'
p9
tp10
a(S"one hour photo is an intriguing snapshot of one man and his delusions ; it's just too bad it doesn't have more flashes of insight . "
p11
g2
tp12
a(S"a compelling coming-of-age drama about the arduous journey of a sensitive young girl through a series of foster homes and a fierce struggle to pull free from her dangerous and domineering mother's hold over her . "
p13
g2
tp14
a(S'the only thing that distinguishes a randall wallace film from any other is the fact that there is nothing distinguishing in a randall wallace film . '
p15
g9
tp16
a(S"this road movie gives you emotional whiplash , and you'll be glad you went along for the ride . "
p17
g2
tp18
a(S'cedar somewhat defuses this provocative theme by submerging it in a hoary love triangle . '
p19
g9
tp20
a(S'suffers from a lack of clarity and audacity that a subject as monstrous and pathetic as dahmer demands . '
p21
g9
tp22
a(S'the stunning , dreamlike visuals will impress even those viewers who have little patience for euro-film pretension . '
p23
g2
tp24
a(S"shows holmes has the screen presence to become a major-league leading lady , ( but ) the movie itself is an underachiever , a psychological mystery that takes its sweet time building to a climax that's scarcely a surprise by the time it arrives . "
p25
g9
tp26
a(S'a triumph of art direction over narrative , but what art direction ! '
p27
g2
tp28
a(S'woo has as much right to make a huge action sequence as any director , but how long will filmmakers copy the " saving private ryan " battle scenes before realizing steven spielberg got it right the first time ? '
p29
g9
tp30
a(S"it's rather like a lifetime special -- pleasant , sweet and forgettable . "
p31
g2
tp32
a(S"it has plenty of laughs . it just doesn't have much else . . . especially in a moral sense . "
p33
g9
tp34
a(S"it's a terrific american sports movie and dennis quaid is its athletic heart . "
p35
g2
tp36
a(S"elling really is about a couple of crazy guys , and it's therapeutic to laugh along with them . "
p37
g2
tp38
a(S"the sundance film festival has become so buzz-obsessed that fans and producers descend upon utah each january to ferret out the next great thing . 'tadpole' was one of the films so declared this year , but it's really more of the next pretty good thing . "
p39
g2
tp40
a(S"respons\xe1vel direto pelo fracasso 'art\xedstico' de doce lar , o roteirista c . jay cox n\xe3o consegue sequer aproveitar os pouqu\xedssimos momentos em que escapa da mediocridade . "
p41
g9
tp42
a(S"[taymor] utilizes the idea of making kahlo's art a living , breathing part of the movie , often catapulting the artist into her own work . this isn't a new idea . it's been done before but never so vividly or with so much passion . "
p43
g2
tp44
a(S'an impressive debut for first-time writer-director mark romanek , especially considering his background is in music video . '
p45
g2
tp46
a(S"everything that has to do with yvan and charlotte , and everything that has to do with yvan's rambunctious , jewish sister and her non-jew husband , feels funny and true . "
p47
g2
tp48
a(S'the movie is loaded with good intentions , but in his zeal to squeeze the action and our emotions into the all-too-familiar dramatic arc of the holocaust escape story , minac drains his movie of all individuality . '
p49
g9
tp50
a(S"here's a british flick gleefully unconcerned with plausibility , yet just as determined to entertain you . "
p51
g2
tp52
a(S"starts off with a bang , but then fizzles like a wet stick of dynamite at the very end . it's still worth a look . "
p53
g2
tp54
a(S'to build a feel-good fantasy around a vain dictator-madman is off-putting , to say the least , not to mention inappropriate and wildly undeserved . '
p55
g9
tp56
a(S"there's a lot of good material here , but there's also a lot of redundancy and unsuccessful crudeness accompanying it . "
p57
g9
tp58
a(S"everybody loves a david and goliath story , and this one is told almost entirely from david's point of view . "
p59
g9
tp60
a(S"sound the trumpets : for the first time since desperately seeking susan , madonna doesn't suck as an actress . "
p61
g2
tp62
a(S"hugh grant's act is so consuming that sometimes it's difficult to tell who the other actors in the movie are . "
p63
g9
tp64
a(S'a simmering psychological drama in which the bursts of sudden violence are all the more startling for the slow buildup that has preceded them . '
p65
g2
tp66
a(S'the most anti-human big studio picture since 3000 miles to graceland . '
p67
g9
tp68
a(S"ranging from funny to shattering and featuring some of the year's best acting , personal velocity gathers plenty of dramatic momentum . "
p69
g2
tp70
a(S'feels shrill , simple and soapy . '
p71
g9
tp72
a(S"long after you leave justine , you'll be wondering what will happen to her and wishing her the best -- whatever that might mean . "
p73
g2
tp74
a(S'a generation x artifact , capturing a brief era of insanity in the sports arena that surely cannot last . '
p75
g2
tp76
a(S'what with all the blanket statements and dime-store ruminations on vanity , the worries of the rich and sudden wisdom , the film becomes a sermon for most of its running time . '
p77
g9
tp78
a(S'bigelow offers some flashy twists and turns that occasionally fortify this turgid fable . but for the most part , the weight of water comes off as a two-way time-switching myopic mystery that stalls in its lackluster gear of emotional blandness . '
p79
g9
tp80
a(S'the pianist is a fine valedictory work for polanski , made richer by his own experiences , making his other movies somehow richer in the bargain . '
p81
g2
tp82
a(S'an odd , haphazard , and inconsequential romantic comedy . '
p83
g9
tp84
a(S"an inelegant combination of two unrelated shorts that falls far short of the director's previous work in terms of both thematic content and narrative strength . "
p85
g9
tp86
a(S' . . . a roller-coaster ride of a movie'
p87
g2
tp88
a(S'sweet home alabama " is what it is \x96 a nice , harmless date film . . . '
p89
g2
tp90
a(S"despite engaging offbeat touches , knockaround guys rarely seems interested in kicking around a raison d'etre that's as fresh-faced as its young-guns cast . "
p91
g9
tp92
a(S"the result , however well-intentioned , is ironically just the sort of disposable , kitchen-sink homage that illustrates why the whole is so often less than the sum of its parts in today's hollywood . "
p93
g9
tp94
a(S' . . . contains very few laughs and even less surprises . '
p95
g9
tp96
a(S"mattei's underdeveloped effort here is nothing but a convenient conveyor belt of brooding personalities that parade about as if they were coming back from stock character camp -- a drowsy drama infatuated by its own pretentious self-examination . "
p97
g9
tp98
a(S"divine secrets of the ya-ya sisterhood may not be exactly divine , but it's definitely -- defiantly -- ya ya , what with all of those terrific songs and spirited performances . "
p99
g2
tp100
a(S"the dangerous lives of altar boys' take on adolescence feels painfully true . "
p101
g2
tp102
a(S'an ugly , pointless , stupid movie . '
p103
g9
tp104
a(S'you should pay nine bucks for this : because you can hear about suffering afghan refugees on the news and still be unaffected . dramas like this make it human . '
p105
g2
tp106
a(S"narc may not get an 'a' for originality , but it wears its b-movie heritage like a badge of honor . "
p107
g2
tp108
a(S'a rather average action film that benefits from several funny moments supplied by epps . '
p109
g9
tp110
a(S"it's not life-affirming \x97 its vulgar and mean , but i liked it . "
p111
g2
tp112
a(S'it would be interesting to hear from the other side , but in talk to her , the women are down for the count . '
p113
g2
tp114
a(S'has its moments -- and almost as many subplots . '
p115
g9
tp116
a(S'a romantic comedy , yes , but one with characters who think and talk about their goals , and are working on hard decisions . '
p117
g2
tp118
a(S"there's a vastness implied in metropolis that is just breathtaking . "
p119
g2
tp120
a(S'an inspiring and heart-affecting film about the desperate attempts of vietnamese refugees living in u . s . relocation camps to keep their hopes alive in 1975 . '
p121
g2
tp122
a(S"this is such a dazzlingly self-assured directorial debut that it's hard to know what to praise first . "
p123
g2
tp124
a(S'the film overcomes the regular minefield of coming-of-age cliches with potent doses of honesty and sensitivity . '
p125
g2
tp126
a(S"it's solid and affecting and exactly as thought-provoking as it should be . "
p127
g2
tp128
a(S'polished korean political-action film is just as good -- and bad -- as hollywood action epics . is this progress ? '
p129
g2
tp130
a(S'what might have been a predictably heartwarming tale is suffused with complexity . '
p131
g2
tp132
a(S"analyze that regurgitates and waters down many of the previous film's successes , with a few new swings thrown in . "
p133
g9
tp134
a(S'the art direction is often exquisite , and the anthropomorphic animal characters are beautifully realized through clever makeup design , leaving one to hope that the eventual dvd release will offer subtitles and the original italian-language soundtrack . '
p135
g9
tp136
a(S'the result is mesmerizing -- filled with menace and squalor . '
p137
g2
tp138
a(S'the waterlogged script plumbs uncharted depths of stupidity , incoherence and sub-sophomoric sexual banter . '
p139
g9
tp140
a(S'will probably be one of those movies barely registering a blip on the radar screen of 2002 . '
p141
g9
tp142
a(S'all the performances are top notch and , once you get through the accents , all or nothing becomes an emotional , though still positive , wrench of a sit . '
p143
g2
tp144
a(S"the tuxedo wasn't just bad ; it was , as my friend david cross would call it , 'hungry-man portions of bad' . "
p145
g9
tp146
a(S'this follow-up seems so similar to the 1953 disney classic that it makes one long for a geriatric peter . '
p147
g9
tp148
a(S'time changer may not be the most memorable cinema session but its profound self-evaluation message about our fragile existence and the absence of spiritual guidance should at least invade an abundance of mindsets'
p149
g2
tp150
a(S'a psychologically rich and suspenseful moral thriller with a stellar performance by al pacino . '
p151
g2
tp152
a(S'as exciting as all this exoticism might sound to the typical pax viewer , the rest of us will be lulled into a coma . '
p153
g9
tp154
a(S'hey , who else needs a shower ? '
p155
g2
tp156
a(S'the seaside splendor and shallow , beautiful people are nice to look at while you wait for the story to get going . '
p157
g2
tp158
a(S'woody allen can write and deliver a one liner as well as anybody . but i had a lot of problems with this movie . '
p159
g9
tp160
a(S'the town has kind of an authentic feel , but each one of these people stand out and everybody else is in the background and it just seems manufactured to me and artificial . '
p161
g9
tp162
a(S"not for everyone , but for those with whom it will connect , it's a nice departure from standard moviegoing fare . "
p163
g2
tp164
a(S'barry sonnenfeld owes frank the pug big time'
p165
g9
tp166
a(S'innocuous enough to make even jean-claude van damme look good . '
p167
g9
tp168
a(S'the diversity of the artists represented , both in terms of style and ethnicity , prevents the proceedings from feeling repetitious , as does the appropriately brief 40-minute running time . '
p169
g2
tp170
a(S'the principals in this cast are all fine , but bishop and stevenson are standouts . '
p171
g2
tp172
a(S'nair does capture the complexity of a big family and its trials and tribulations . . . '
p173
g2
tp174
a(S'in his debut as a film director , denzel washington delivers a lean and engaging work . '
p175
g2
tp176
a(S'this is the sort of low-grade dreck that usually goes straight to video --with a lousy script , inept direction , pathetic acting , poorly dubbed dialogue and murky cinematography , complete with visible boom mikes . '
p177
g9
tp178
a(S'whether kiss is a future cult classic or destined to be completely forgotten is open to question , but the risk-takers in the crowd should check it out and form their own opinion . '
p179
g2
tp180
a(S"ver wiel's desperate attempt at wit is lost , leaving the character of critical jim two-dimensional and pointless . "
p181
g9
tp182
a(S'one thing is for sure : this movie does not tell you a whole lot about lily chou-chou . '
p183
g9
tp184
a(S'maguire is a surprisingly effective peter/spider-man . '
p185
g2
tp186
a(S'brady achieves the remarkable feat of squandering a topnotch foursome of actors . . . by shoving them into every clich\xe9d white-trash situation imaginable . '
p187
g9
tp188
a(S'the smartest bonehead comedy of the summer . '
p189
g2
tp190
a(S"paxton's uneven directorial debut fails to unlock the full potential of what is in many ways a fresh and dramatically substantial spin on the genre . "
p191
g9
tp192
a(S'i found myself growing more and more frustrated and detached as vincent became more and more abhorrent . '
p193
g9
tp194
a(S"yeah , these flicks are just that damn good . isn't it great ? "
p195
g2
tp196
a(S"on its own , it's not very interesting . as a remake , it's a pale imitation . "
p197
g9
tp198
a(S'rarely do films come along that are as intelligent , exuberant , and moving as monsoon wedding . '
p199
g2
tp200
a(S'a graceful , contemplative film that gradually and artfully draws us into a world where the personal and the political get fatally intertwined . '
p201
g2
tp202
a(S'more a load of enjoyable , conan-esque claptrap than the punishing , special-effects soul assaults the mummy pictures represent . '
p203
g2
tp204
a(S"there's nothing to gain from watching they . it isn't scary . it hates its characters . it finds no way to entertain or inspire its viewers . "
p205
g9
tp206
a(S'the party scenes deliver some tawdry kicks . the rest of the film . . . is dudsville . '
p207
g9
tp208
a(S'it may play well as a double feature with mainstream foreign mush like my big fat greek wedding'
p209
g9
tp210
a(S'on a cutting room floor somewhere lies . . . footage that might have made no such thing a trenchant , ironic cultural satire instead of a frustrating misfire . '
p211
g9
tp212
a(S'tender yet lacerating and darkly funny fable . '
p213
g2
tp214
a(S"let's issue a moratorium , effective immediately , on treacly films about inspirational prep-school professors and the children they so heartwarmingly motivate . "
p215
g9
tp216
a(S"the only surprise is that heavyweights joel silver and robert zemeckis agreed to produce this ; i assume the director has pictures of them cavorting in ladies' underwear . "
p217
g9
tp218
a(S'a lighthearted , feel-good film that embraces the time-honored truth that the most powerful thing in life is love . '
p219
g2
tp220
a(S'a hip ride into hyper-time , clockstoppers is a lively and enjoyable adventure for all ages at any time . '
p221
g2
tp222
a(S'the action clich\xe9s just pile up . '
p223
g9
tp224
a(S"easier to respect than enthuse over , andersson's rigorous personal vision is not only distanced but distancing . "
p225
g2
tp226
a(S'offers a breath of the fresh air of true sophistication . '
p227
g2
tp228
a(S'a somewhat crudely constructed but gripping , questing look at a person so racked with self-loathing , he becomes an enemy to his own race . '
p229
g2
tp230
a(S'the drama is played out with such aching beauty and truth that it brings tears to your eyes . '
p231
g2
tp232
a(S" . . . ambition is in short supply in the cinema , and egoyan tackles his themes and explores his characters' crises with seriousness and compassion . "
p233
g2
tp234
a(S"most of the storylines feel like time fillers between surf shots . the movie isn't horrible , but you can see mediocre cresting on the next wave . "
p235
g9
tp236
a(S"the movie's quiet affirmation of neighborhood values gives it an honest , lived-in glow . "
p237
g2
tp238
a(S'a thoughtful , provocative , insistently humanizing film . '
p239
g2
tp240
a(S'part of the charm of satin rouge is that it avoids the obvious with humour and lightness . '
p241
g2
tp242
a(S'the movie has an avalanche of eye-popping visual effects . '
p243
g2
tp244
a(S"there's no getting around the fact that this is revenge of the nerds revisited -- again . "
p245
g9
tp246
a(S"if welles was unhappy at the prospect of the human race splitting in two , he probably wouldn't be too crazy with his great-grandson's movie splitting up in pretty much the same way . "
p247
g9
tp248
a(S"i don't know precisely what to make of steven soderbergh's full frontal , though that didn't stop me from enjoying much of it . "
p249
g2
tp250
a(S'a fifty car pileup of cliches . '
p251
g9
tp252
a(S'maybe leblanc thought , " hey , the movie about the baseball-playing monkey was worse . " '
p253
g9
tp254
a(S'holds limited appeal to those who like explosions , sadism and seeing people beat each other to a pulp . '
p255
g9
tp256
a(S'if you value your time and money , find an escape clause and avoid seeing this trite , predictable rehash . '
p257
g9
tp258
a(S'a wildly erratic drama with sequences that make you wince in embarrassment and others , thanks to the actors , that are quite touching . '
p259
g9
tp260
a(S'an impressive if flawed effort that indicates real talent . '
p261
g2
tp262
a(S"a savvy exploration of paranoia and insecurity in america's culture of fear . "
p263
g2
tp264
a(S'an offbeat , sometimes gross and surprisingly appealing animated film about the true meaning of the holidays . '
p265
g2
tp266
a(S'the skirmishes for power waged among victims and predators settle into an undistinguished rhythm of artificial suspense . '
p267
g9
tp268
a(S"it uses an old-time formula , it's not terribly original and it's rather messy -- but you just have to love the big , dumb , happy movie my big fat greek wedding . "
p269
g2
tp270
a(S'pc stability notwithstanding , the film suffers from a simplistic narrative and a pat , fairy-tale conclusion . '
p271
g9
tp272
a(S' . . . as the story congeals you feel the pieces of the star wars saga falling into place in a way that makes your spine tingle with revelation and excitement . '
p273
g2
tp274
a(S'it will delight newcomers to the story and those who know it from bygone days . '
p275
g2
tp276
a(S"not at all clear what it's trying to say and even if it were \x96 i doubt it would be all that interesting . "
p277
g9
tp278
a(S'a gentle blend of present day testimonials , surviving footage of burstein and his family performing , historical archives , and telling stills . '
p279
g2
tp280
a(S"rifkin no doubt fancies himself something of a hubert selby jr . , but there isn't an ounce of honest poetry in his entire script ; it's simply crude and unrelentingly exploitative . "
p281
g9
tp282
a(S"with a tone as variable as the cinematography , schaeffer's film never settles into the light-footed enchantment the material needs , and the characters' quirks and foibles never jell into charm . "
p283
g9
tp284
a(S"although it tries to be much more , it's really just another major league . "
p285
g9
tp286
a(S'despite its flaws , secretary stays in your head and makes you question your own firmly held positions . '
p287
g2
tp288
a(S'well-written , nicely acted and beautifully shot and scored , the film works on several levels , openly questioning social mores while ensnaring the audience with its emotional pull . '
p289
g2
tp290
a(S' " the emperor\'s new clothes " begins with a simple plan . . . . well , at least that\'s the plan . '
p291
g2
tp292
a(S'77 minutes of pokemon may not last 4ever , it just seems like it does . my only wish is that celebi could take me back to a time before i saw this movie and i could just skip it . '
p293
g9
tp294
a(S'the crime matters less than the characters , although the filmmakers supply enough complications , close calls and double-crosses to satisfy us . '
p295
g2
tp296
a(S'an amusing , breezily apolitical documentary about life on the campaign trail . '
p297
g2
tp298
a(S'instead of building to a laugh riot we are left with a handful of disparate funny moments of no real consequence . '
p299
g9
tp300
a(S'\x85the maudlin way its story unfolds suggests a director fighting against the urge to sensationalize his material . '
p301
g9
tp302
a(S'a sentimental mess that never rings true . '
p303
g9
tp304
a(S"bennett's dramatization of her personal descent into post-breakup perdition has a morbid appeal that's tough to shake . "
p305
g2
tp306
a(S"yes , i have given this movie a rating of zero . but fans of the show should not consider this a diss . consider it 'perfection . '"
p307
g9
tp308
a(S'not everything works , but the average is higher than in mary and most other recent comedies . '
p309
g2
tp310
a(S'the master of disguise is funny--not " ha ha " funny , " dead circus performer " funny . and for all the wrong reasons besides . '
p311
g9
tp312
a(S'a sad , superior human comedy played out on the back roads of life . '
p313
g2
tp314
a(S"it's not difficult to spot the culprit early-on in this predictable thriller . "
p315
g9
tp316
a(S"this remake of lina wertmuller's 1975 eroti-comedy might just be the biggest husband-and-wife disaster since john and bo derek made the ridiculous bolero . "
p317
g9
tp318
a(S'stale first act , scrooge story , blatant product placement , some very good comedic songs , strong finish , dumb fart jokes . '
p319
g9
tp320
a(S"a sensitive and expertly acted crowd-pleaser that isn't above a little broad comedy and a few unabashedly sentimental tears . "
p321
g2
tp322
a(S'thoroughly enjoyable . '
p323
g2
tp324
a(S'the filmmakers skillfully evoke the sense of menace that nature holds for many urban dwellers . '
p325
g2
tp326
a(S'the laser-projected paintings provide a spell-casting beauty , while russell and dreyfus are a romantic pairing of hearts , preciously exposed as history corners them . '
p327
g2
tp328
a(S"it's so laddish and juvenile , only teenage boys could possibly find it funny . "
p329
g9
tp330
a(S"run , don't walk , to see this barbed and bracing comedy on the big screen . "
p331
g2
tp332
a(S"an awful lot like one of [spears'] music videos in content -- except that it goes on for at least 90 more minutes and , worse , that you have to pay if you want to see it . "
p333
g9
tp334
a(S"the script covers huge , heavy topics in a bland , surfacey way that doesn't offer any insight into why , for instance , good things happen to bad people . "
p335
g9
tp336
a(S'such master screenwriting comes courtesy of john pogue , the yale grad who previously gave us " the skulls " and last year\'s " rollerball . " enough said , except : film overboard ! '
p337
g9
tp338
a(S'somewhere short of tremors on the modern b-scene : neither as funny nor as clever , though an agreeably unpretentious way to spend ninety minutes . '
p339
g2
tp340
a(S'i whole-heartedly recommend that everyone see this movie-- for its historical significance alone . '
p341
g2
tp342
a(S'the execution is so pedestrian that the most positive comment we can make is that rob schneider actually turns in a pretty convincing performance as a prissy teenage girl . '
p343
g9
tp344
a(S'obvious'
p345
g9
tp346
a(S"bourne , jason bourne . he can scale a building like a super hero , he can out-stealth any agent , he'll get the girl . he's super spy ! "
p347
g2
tp348
a(S"there's nothing remotely topical or sexy here . "
p349
g9
tp350
a(S"possession is in the end an honorable , interesting failure . it falls far short of poetry , but it's not bad prose . "
p351
g9
tp352
a(S'singer/composer bryan adams contributes a slew of songs \x97 a few potential hits , a few more simply intrusive to the story \x97 but the whole package certainly captures the intended , er , spirit of the piece . '
p353
g2
tp354
a(S" . . . ice age treads predictably along familiar territory , making it a passable family film that won't win many fans over the age of 12 . "
p355
g9
tp356
a(S"the sequel plays out like a flimsy excuse to give blade fans another look at wesley snipes' iconic hero doing battle with dozens of bad guys -- at once . "
p357
g9
tp358
a(S'call me a wimp , but i cried , not once , but three times in this animated sweet film . '
p359
g2
tp360
a(S'everytime you think undercover brother has run out of steam , it finds a new way to surprise and amuse . '
p361
g2
tp362
a(S'perhaps no picture ever made has more literally showed that the road to hell is paved with good intentions . '
p363
g2
tp364
a(S'devoid of any of the qualities that made the first film so special . '
p365
g9
tp366
a(S"somewhat blurred , but kinnear's performance is razor sharp . "
p367
g2
tp368
a(S'so devoid of pleasure or sensuality that it cannot even be dubbed hedonistic . '
p369
g9
tp370
a(S"it represents better-than-average movie-making that doesn't demand a dumb , distracted audience . "
p371
g2
tp372
a(S"it's both a necessary political work and a fascinating documentary . . . "
p373
g2
tp374
a(S"it's fun , but the code-talk will fly right over everyone's head"
p375
g2
tp376
a(S'this is amusing for about three minutes . '
p377
g9
tp378
a(S"the master of disguise represents adam sandler's latest attempt to dumb down the universe . "
p379
g9
tp380
a(S"most of the problems with the film don't derive from the screenplay , but rather the mediocre performances by most of the actors involved"
p381
g9
tp382
a(S'kids who are into this thornberry stuff will probably be in wedgie heaven . anyone else who may , for whatever reason , be thinking about going to see this movie is hereby given fair warning . '
p383
g9
tp384
a(S'possibly not since grumpy old men have i heard a film so solidly connect with one demographic while striking out with another . '
p385
g9
tp386
a(S'storytelling feels slight . '
p387
g9
tp388
a(S"the story wraps back around on itself in the kind of elegant symmetry that's rare in film today , but be warned : it's a slow slog to get there . "
p389
g2
tp390
a(S'[garbus] discards the potential for pathological study , exhuming instead , the skewed melodrama of the circumstantial situation . '
p391
g9
tp392
a(S"majidi's poetic love story is a ravishing consciousness-raiser , if a bit draggy at times . "
p393
g2
tp394
a(S'klein , charming in comedies like american pie and dead-on in election , delivers one of the saddest action hero performances ever witnessed . '
p395
g9
tp396
a(S'a poorly scripted , preachy fable that forgets about unfolding a coherent , believable story in its zeal to spread propaganda . '
p397
g9
tp398
a(S'i approached the usher and said that if she had to sit through it again , she should ask for a raise . '
p399
g9
tp400
a(S'resembles a soft porn brian de palma pastiche . '
p401
g9
tp402
a(S' . . . tunney is allowed to build an uncommonly human character , an almost real-live girl complete with trouble and hope . '
p403
g2
tp404
a(S'chicago is sophisticated , brash , sardonic , completely joyful in its execution . '
p405
g2
tp406
a(S"it's not only dull because we've seen [eddie] murphy do the genial-rogue shtick to death , but because the plot is equally hackneyed . "
p407
g9
tp408
a(S"ranks among willams' best screen work . "
p409
g2
tp410
a(S'what you end up getting is the vertical limit of surfing movies - memorable stunts with lots of downtime in between . '
p411
g9
tp412
a(S' " its successes are also tempered with elements which prove the direct antithesis of what it gets right . " '
p413
g2
tp414
a(S"maybe it's just because this past year has seen the release of some of the worst film comedies in decades . . . but honestly , analyze that really isn't all that bad . "
p415
g2
tp416
a(S'hu and liu offer natural , matter-of-fact performances that glint with sorrow , longing and love . '
p417
g2
tp418
a(S"there's more repetition than creativity throughout the movie . "
p419
g9
tp420
a(S"an engaging overview of johnson's eccentric career . "
p421
g2
tp422
a(S'kinnear gives a tremendous performance . '
p423
g2
tp424
a(S'dull and mechanical , kinda like a very goofy museum exhibit'
p425
g9
tp426
a(S"in theory , a middle-aged romance pairing clayburgh and tambor sounds promising , but in practice it's something else altogether -- clownish and offensive and nothing at all like real life . "
p427
g9
tp428
a(S'a film that loses sight of its own story . '
p429
g9
tp430
a(S'the movie has a soft , percolating magic , a deadpan suspense . '
p431
g2
tp432
a(S"the film's sharp , often mischievous sense of humor will catch some off guard . . . "
p433
g2
tp434
a(S'it is intensely personal and yet -- unlike quills -- deftly shows us the temper of the times . '
p435
g2
tp436
a(S'a thunderous ride at first , quiet cadences of pure finesse are few and far between ; their shortage dilutes the potency of otherwise respectable action . still , this flick is fun , and host to some truly excellent sequences . '
p437
g2
tp438
a(S'ultimately , it ponders the reasons we need stories so much . '
p439
g2
tp440
a(S'remains a solid , if somewhat heavy-handed , account of the near-disaster . . . done up by howard with a steady , if not very imaginative , hand . '
p441
g2
tp442
a(S"some episodes work , some don't . "
p443
g9
tp444
a(S"it's the element of condescension , as the filmmakers look down on their working-class subjects from their lofty perch , that finally makes sex with strangers , which opens today in the new york metropolitan area , so distasteful . "
p445
g9
tp446
a(S"there's no point of view , no contemporary interpretation of joan's prefeminist plight , so we're left thinking the only reason to make the movie is because present standards allow for plenty of nudity . "
p447
g9
tp448
a(S'an experience so engrossing it is like being buried in a new environment . '
p449
g2
tp450
a(S'oozes condescension from every pore . '
p451
g9
tp452
a(S'if you go into the theater expecting a scary , action-packed chiller , you might soon be looking for a sign . an exit sign , that is . '
p453
g9
tp454
a(S'what really surprises about wisegirls is its low-key quality and genuine tenderness . '
p455
g2
tp456
a(S"its mysteries are transparently obvious , and it's too slowly paced to be a thriller . [but it's] worth recommending because of two marvelous performances by michael caine and brendan fraser . "
p457
g2
tp458
a(S'a byzantine melodrama that stimulates the higher brain functions as well as the libido . '
p459
g2
tp460
a(S"brown's saga , like many before his , makes for snappy prose but a stumblebum of a movie . "
p461
g9
tp462
a(S'almost every scene in this film is a gem that could stand alone , a perfectly realized observation of mood , behavior and intent . '
p463
g2
tp464
a(S'as an entertainment , the movie keeps you diverted and best of all , it lightens your wallet without leaving a sting . '
p465
g2
tp466
a(S'[a] rare , beautiful film . '
p467
g2
tp468
a(S'completely awful iranian drama . . . as much fun as a grouchy ayatollah in a cold mosque . '
p469
g9
tp470
a(S'even with all those rough edges safely sanded down , the american insomnia is still pretty darned good . '
p471
g2
tp472
a(S'this clever caper movie has twists worthy of david mamet and is enormous fun for thinking audiences . '
p473
g2
tp474
a(S'it\'s rare to see a movie that takes such a speedy swan dive from " promising " to " interesting " to " familiar " before landing squarely on " stupid " . '
p475
g9
tp476
a(S"there's a disreputable air about the whole thing , and that's what makes it irresistible . "
p477
g2
tp478
a(S'compelling revenge thriller , though somewhat weakened by a miscast leading lady . '
p479
g2
tp480
a(S"some actors have so much charisma that you'd be happy to listen to them reading the phone book . hugh grant and sandra bullock are two such likeable actors . "
p481
g2
tp482
a(S"a distant , even sterile , yet compulsively watchable look at the sordid life of hogan's heroes star bob crane . "
p483
g2
tp484
a(S'the result is something quite fresh and delightful . '
p485
g2
tp486
a(S"parker holds true to wilde's own vision of a pure comedy with absolutely no meaning , and no desire to be anything but a polished , sophisticated entertainment that is in love with its own cleverness . "
p487
g2
tp488
a(S"there's no doubting that this is a highly ambitious and personal project for egoyan , but it's also one that , next to his best work , feels clumsy and convoluted . "
p489
g9
tp490
a(S'it helps that lil bow wow . . . tones down his pint-sized gangsta act to play someone who resembles a real kid . '
p491
g2
tp492
a(S'it extends the writings of jean genet and john rechy , the films of fassbinder , perhaps even the nocturnal works of goya . '
p493
g2
tp494
a(S'purely propaganda , a work of unabashed hero worship , it is nonetheless -- and likely inadvertently -- a timely and invaluable implicit reminder of the role that u . s . foreign policy has played in the rise of castro . '
p495
g2
tp496
a(S'a not-so-divine secrets of the ya-ya sisterhood with a hefty helping of re-fried green tomatoes . '
p497
g9
tp498
a(S'morton is a great actress portraying a complex character , but morvern callar grows less compelling the farther it meanders from its shocking start . '
p499
g2
tp500
a(S"roman coppola may never become the filmmaker his dad was , but heck \x96 few filmmakers will . but based on cq , i'll certainly be keeping an eye out for his next project . "
p501
g2
tp502
a(S'without heavy-handedness , dong provides perspective with his intelligent grasp of human foibles and contradictions . '
p503
g2
tp504
a(S"[sam's] self-flagellation is more depressing than entertaining . "
p505
g9
tp506
a(S'brisk hack job . '
p507
g9
tp508
a(S"one of the best , most understated performances of [jack nicholson's] career . "
p509
g2
tp510
a(S'an endearingly offbeat romantic comedy with a great meet-cute gimmick . '
p511
g2
tp512
a(S'at 90 minutes this movie is short , but it feels much longer . '
p513
g9
tp514
a(S'the one not-so-small problem with expecting is that the entire exercise has no real point . '
p515
g9
tp516
a(S'workmanlike , maybe , but still a film with all the elements that made the other three great , scary times at the movies . '
p517
g2
tp518
a(S"to paraphrase a line from another dickens' novel , nicholas nickleby is too much like a fragment of an underdone potato . "
p519
g9
tp520
a(S'one lousy movie . '
p521
g9
tp522
a(S'sandra nettelbeck beautifully orchestrates the transformation of the chilly , neurotic , and self-absorbed martha as her heart begins to open . '
p523
g2
tp524
a(S' . . . hypnotically dull . '
p525
g9
tp526
a(S'as lo-fi as the special effects are , the folks who cobbled nemesis together indulge the force of humanity over hardware in a way that george lucas has long forgotten . '
p527
g2
tp528
a(S'plodding , peevish and gimmicky . '
p529
g9
tp530
a(S'a droll , well-acted , character-driven comedy with unexpected deposits of feeling . '
p531
g2
tp532
a(S"kirshner and monroe seem to be in a contest to see who can out-bad-act the other . ( kirshner wins , but it's close . ) "
p533
g9
tp534
a(S"everything's serious , poetic , earnest and -- sadly -- dull . "
p535
g9
tp536
a(S"the film's greatest asset is how much it's not just another connect-the-dots , spy-on-the-run picture . "
p537
g2
tp538
a(S'deadly dull , pointless meditation on losers in a gone-to-seed hotel . '
p539
g9
tp540
a(S'a movie you observe , rather than one you enter into . '
p541
g9
tp542
a(S'the invincible werner herzog is alive and well and living in la'
p543
g2
tp544
a(S"you wouldn't call the good girl a date movie ( an anti-date movie is more like it ) , but when it's good , it's good and horrid . "
p545
g2
tp546
a(S"diane lane's sophisticated performance can't rescue adrian lyne's unfaithful from its sleazy moralizing . "
p547
g9
tp548
a(S'the trappings of i spy are so familiar you might as well be watching a rerun . '
p549
g9
tp550
a(S'thoroughly awful . '
p551
g9
tp552
a(S"davis has energy , but she doesn't bother to make her heroine's book sound convincing , the gender-war ideas original , or the comic scenes fly . "
p553
g9
tp554
a(S'the 50-something lovebirds are too immature and unappealing to care about . '
p555
g9
tp556
a(S"it's also curious to note that this film , like the similarly ill-timed antitrust , is easily as bad at a fraction the budget . "
p557
g9
tp558
a(S'will grab your children by the imagination and amaze them and amuse them . '
p559
g2
tp560
a(S"hands down the year's most thought-provoking film . but it pays a price for its intricate intellectual gamesmanship . "
p561
g2
tp562
a(S'enormously likable , partly because it is aware of its own grasp of the absurd . '
p563
g2
tp564
a(S" . . . if you're just in the mood for a fun -- but bad -- movie , you might want to catch freaks as a matinee . "
p565
g9
tp566
a(S'a visually flashy but narratively opaque and emotionally vapid exercise in style and mystification . '
p567
g9
tp568
a(S"ana is a vivid , vibrant individual and the movie's focus upon her makes it successful and accessible . "
p569
g2
tp570
a(S'a very funny movie . '
p571
g2
tp572
a(S'for the first two-thirds of this sparklingly inventive and artful , always fast and furious tale , kids will go happily along for the ride . '
p573
g2
tp574
a(S"the images are usually abbreviated in favor of mushy obviousness and telegraphed pathos , particularly where whitaker's misfit artist is concerned . "
p575
g9
tp576
a(S"hip-hop has a history , and it's a metaphor for this love story . "
p577
g2
tp578
a(S'only two words will tell you what you know when deciding to see it : anthony . hopkins . '
p579
g2
tp580
a(S'though everything might be literate and smart , it never took off and always seemed static . '
p581
g2
tp582
a(S'whether or not you\'re enlightened by any of derrida\'s lectures on " the other " and " the self , " derrida is an undeniably fascinating and playful fellow . '
p583
g2
tp584
a(S'a few pieces of the film buzz and whir ; very little of it actually clicks . the thing just never gets off the ground . '
p585
g9
tp586
a(S'hampered -- no , paralyzed -- by a self-indulgent script . . . that aims for poetry and ends up sounding like satire . '
p587
g9
tp588
a(S'the dialogue is very choppy and monosyllabic despite the fact that it is being dubbed . '
p589
g9
tp590
a(S"circuit queens won't learn a thing , they'll be too busy cursing the film's strategically placed white sheets . "
p591
g9
tp592
a(S'a pleasant romantic comedy . '
p593
g2
tp594
a(S'this is pretty dicey material . but some unexpected zigs and zags help . '
p595
g2
tp596
a(S'an infuriating film . just when you think you are making sense of it , something happens that tells you there is no sense . '
p597
g9
tp598
a(S' . . . a pretentious and ultimately empty examination of a sick and evil woman . '
p599
g9
tp600
a(S'if the message seems more facile than the earlier films , the images have such a terrible beauty you may not care . '
p601
g2
tp602
a(S'a carefully structured scream of consciousness that is tortured and unsettling--but unquestionably alive . '
p603
g2
tp604
a(S'there\'s a reason the studio didn\'t offer an advance screening . " the adventures of pluto nash " is a big time stinker . '
p605
g9
tp606
a(S"if you think it's a riot to see rob schneider in a young woman's clothes , then you'll enjoy the hot chick . "
p607
g9
tp608
a(S"there are moments in this account of the life of artist frida kahlo that are among cinema's finest this year . unfortunately , they're sandwiched in between the most impossibly dry account of kahlo's life imaginable . "
p609
g2
tp610
a(S'remarkably accessible and affecting . '
p611
g2
tp612
a(S'jason x has cheesy effects and a hoary plot , but its macabre , self-deprecating sense of humor makes up for a lot . '
p613
g2
tp614
a(S"' . . . both hokey and super-cool , and definitely not in a hurry , so sit back , relax and have a few laughs while the little ones get a fuzzy treat . '"
p615
g2
tp616
a(S"with the cheesiest monsters this side of a horror spoof , which they isn't , it is more likely to induce sleep than fright . "
p617
g9
tp618
a(S"given too much time to consider the looseness of the piece , the picture begins to resemble the shapeless , grasping actors' workshop that it is . "
p619
g9
tp620
a(S'bullock does a good job here of working against her natural likability . '
p621
g2
tp622
a(S'behind the snow games and lovable siberian huskies ( plus one sheep dog ) , the picture hosts a parka-wrapped dose of heart . '
p623
g2
tp624
a(S"m\xfcnch's genuine insight makes the film's occasional overindulgence forgivable . "
p625
g2
tp626
a(S"an exceedingly clever piece of cinema . another great \x91what you don't see' is much more terrifying than what you do see thriller , coupled with some arresting effects , incandescent tones and stupendous performances"
p627
g2
tp628
a(S'an irresistible combination of a rousing good story set on a truly grand scale . '
p629
g2
tp630
a(S"though this rude and crude film does deliver a few gut-busting laughs , its digs at modern society are all things we've seen before . "
p631
g9
tp632
a(S"eventually , they will have a showdown , but , by then , your senses are as mushy as peas and you don't care who fires the winning shot . "
p633
g9
tp634
a(S"grenier is terrific , bringing an unforced , rapid-fire delivery to toback's heidegger- and nietzsche-referencing dialogue . "
p635
g2
tp636
a(S"as expected , sayles' smart wordplay and clever plot contrivances are as sharp as ever , though they may be overshadowed by some strong performances . "
p637
g2
tp638
a(S'while the isle is both preposterous and thoroughly misogynistic , its vistas are incredibly beautiful to look at . '
p639
g2
tp640
a(S'scores a few points for doing what it does with a dedicated and good-hearted professionalism . '
p641
g2
tp642
a(S"isn't as sharp as the original . . . despite some visual virtues , 'blade ii' just doesn't cut it . "
p643
g9
tp644
a(S'the bourne identity is what summer screen escapism used to be in the decades when it was geared more to grownups . '
p645
g2
tp646
a(S"there's nothing interesting in unfaithful whatsoever . "
p647
g9
tp648
a(S'this version incarnates the prophetic book in a way even its exacting author might admire . '
p649
g2
tp650
a(S'as an entertainment destination for the general public , kung pow sets a new benchmark for lameness . '
p651
g9
tp652
a(S"a baffling subplot involving smuggling drugs inside danish cows falls flat , and if you're going to alter the bard's ending , you'd better have a good alternative . "
p653
g9
tp654
a(S"it won't bust your gut -- and it's not intended to -- it's merely a blandly cinematic surgical examination of what makes a joke a joke . "
p655
g2
tp656
a(S'even if you can\'t pronounce " gyro " correctly , you\'ll appreciate much of vardalos\' humor , which transcends ethnic boundaries . '
p657
g2
tp658
a(S'compellingly watchable . '
p659
g2
tp660
a(S'star wars is back in a major way . '
p661
g2
tp662
a(S"weirdly , broomfield has compelling new material but he doesn't unveil it until the end , after endless scenes of him wheedling reluctant witnesses and pointing his camera through the smeared windshield of his rental car . "
p663
g9
tp664
a(S"it's not nearly as fresh or enjoyable as its predecessor , but there are enough high points to keep this from being a complete waste of time . "
p665
g9
tp666
a(S"it's traditional moviemaking all the way , but it's done with a lot of careful period attention as well as some very welcome wit . "
p667
g2
tp668
a(S"celebrated at sundance , this slight comedy of manners has winning performances and a glossy , glib charm that's hard to beat . "
p669
g2
tp670
a(S"mr . soderbergh's direction and visual style struck me as unusually and unimpressively fussy and pretentious . "
p671
g9
tp672
a(S"a great comedy filmmaker knows great comedy needn't always make us laugh . tim story's not there yet - but 'barbershop' shows he's on his way . "
p673
g2
tp674
a(S'with its parade of almost perpetually wasted characters . . . margarita feels like a hazy high that takes too long to shake . '
p675
g9
tp676
a(S'curling may be a unique sport but men with brooms is distinctly ordinary . '
p677
g9
tp678
a(S'spiderman rocks'
p679
g2
tp680
a(S'presents an astute appraisal of middle american musical torpor and the desperate struggle to escape it . '
p681
g2
tp682
a(S'cute , funny , heartwarming digitally animated feature film with plenty of slapstick humor for the kids , lots of in-jokes for the adults and heart enough for everyone . '
p683
g2
tp684
a(S'a pleasant and engaging enough sit , but in trying to have the best of both worlds it ends up falling short as a whole . '
p685
g9
tp686
a(S"a real movie , about real people , that gives us a rare glimpse into a culture most of us don't know . "
p687
g2
tp688
a(S"the video work is so grainy and rough , so dependent on being 'naturalistic' rather than carefully lit and set up , that it's exhausting to watch . "
p689
g9
tp690
a(S'a thoughtful look at a painful incident that made headlines in 1995 . '
p691
g2
tp692
a(S"children and adults enamored of all things pokemon won't be disappointed . "
p693
g9
tp694
a(S'this is a very fine movie -- go see it . '
p695
g2
tp696
a(S'as if to prove a female director can make a movie with no soft edges , kathryn bigelow offers no sugar-coating or interludes of lightness . her film is unrelentingly claustrophobic and unpleasant . '
p697
g2
tp698
a(S'offers that rare combination of entertainment and education . '
p699
g2
tp700
a(S'light , cute and forgettable . '
p701
g2
tp702
a(S'waydowntown is by no means a perfect film , but its boasts a huge charm factor and smacks of originality . '
p703
g2
tp704
a(S"it is nature against progress . in fessenden's horror trilogy , this theme has proved important to him and is especially so in the finale . "
p705
g2
tp706
a(S"benefits from a strong performance from zhao , but it's dong jie's face you remember at the end . "
p707
g2
tp708
a(S'the passions aroused by the discord between old and new cultures are set against the strange , stark beauty of the mideast desert , so lovingly and perceptively filmed that you can almost taste the desiccated air . '
p709
g2
tp710
a(S'about as enjoyable , i would imagine , as searching for a quarter in a giant pile of elephant feces . . . positively dreadful . '
p711
g9
tp712
a(S'a very witty take on change , risk and romance , and the film uses humour to make its points about acceptance and growth . '
p713
g2
tp714
a(S'a punch line without a premise , a joke built entirely from musty memories of half-dimensional characters . '
p715
g9
tp716
a(S"this is such a high-energy movie where the drumming and the marching are so excellent , who cares if the story's a little weak . "
p717
g2
tp718
a(S'beautifully filmed and well acted . . . but admittedly problematic in its narrative specifics . '
p719
g9
tp720
a(S"as gamely as the movie tries to make sense of its title character , there remains a huge gap between the film's creepy , clean-cut dahmer ( jeremy renner ) and fiendish acts that no amount of earnest textbook psychologizing can bridge . "
p721
g9
tp722
a(S'only those most addicted to film violence in all its forms will find anything here to appreciate . '
p723
g9
tp724
a(S'the whole affair is as predictable as can be . '
p725
g9
tp726
a(S"the boys' sparring , like the succession of blows dumped on guei , wears down the story's more cerebral , and likable , plot elements . "
p727
g9
tp728
a(S'a truly moving experience , and a perfect example of how art -- when done right -- can help heal , clarify , and comfort . '
p729
g2
tp730
a(S"if sinise's character had a brain his ordeal would be over in five minutes but instead the plot goes out of its way to introduce obstacles for him to stumble over . "
p731
g9
tp732
a(S"like the film's almost anthropologically detailed realization of early-'80s suburbia , it's significant without being overstated . "
p733
g2
tp734
a(S'earnest but heavy-handed . '
p735
g9
tp736
a(S"if h . g . wells had a time machine and could take a look at his kin's reworked version , what would he say ? 'it looks good , sonny , but you missed the point . '"
p737
g9
tp738
a(S'disturbing and brilliant documentary . '
p739
g2
tp740
a(S'like old myths and wonder tales spun afresh . '
p741
g2
tp742
a(S'nothing but one relentlessly depressing situation after another for its entire running time , something that you could easily be dealing with right now in your lives . '
p743
g9
tp744
a(S'murderous maids may well be the most comprehensive of these films and also strike closest to the truth . '
p745
g2
tp746
a(S'as a randy film about sexy people in gorgeous places being pushed and pulled ( literally and figuratively ) by desire . . . [sex and luc\xeda] makes for an arousing good time . '
p747
g2
tp748
a(S"we need [moore's] noisy , cocky energy , his passion and class consciousness ; we need his shticks , we need his stones . "
p749
g2
tp750
a(S'if you sometimes like to go to the movies to have fun , wasabi is a good place to start . '
p751
g2
tp752
a(S'i admired this work a lot . '
p753
g2
tp754
a(S"everything is pegged into the groove of a new york dating comedy with 'issues' to simplify . "
p755
g9
tp756
a(S'intriguing and beautiful film , but those of you who read the book are likely to be disappointed . '
p757
g2
tp758
a(S"'this movie sucks . '"
p759
g9
tp760
a(S'unsurprisingly , the way this all works out makes the women look more like stereotypical caretakers and moral teachers , instead of serious athletes . '
p761
g9
tp762
a(S"typical anim\xe9 , with cheapo animation ( like saturday morning tv in the '60s ) , a complex sword-and-sorcery plot and characters who all have big round eyes and japanese names . "
p763
g9
tp764
a(S'this is a movie so insecure about its capacity to excite that it churns up not one but two flagrantly fake thunderstorms to underscore the action . '
p765
g9
tp766
a(S"the entire movie is so formulaic and forgettable that it's hardly over before it begins to fade from memory . "
p767
g9
tp768
a(S'glazed with a tawdry b-movie scum . '
p769
g9
tp770
a(S'the actors must indeed be good to recite some of this laughable dialogue with a straight face . '
p771
g9
tp772
a(S"[p]artnering murphy with robert de niro for the tv-cops comedy showtime would seem to be surefire casting . the catch is that they're stuck with a script that prevents them from firing on all cylinders . "
p773
g9
tp774
a(S'it is messy , uncouth , incomprehensible , vicious and absurd . '
p775
g9
tp776
a(S'family fare . '
p777
g2
tp778
a(S"nearly surreal , dabbling in french , this is no simple movie , and you'll be taking a risk if you choose to see it . i enjoyed the ride ( bumps and all ) , creamy depth , and ultimate theme . "
p779
g2
tp780
a(S'a classy item by a legend who may have nothing left to prove but still has the chops and drive to show how its done . '
p781
g2
tp782
a(S'go see it and enjoy . '
p783
g2
tp784
a(S"if there's a way to effectively teach kids about the dangers of drugs , i think it's in projects like the ( unfortunately r-rated ) paid . "
p785
g2
tp786
a(S"it's the best film of the year so far , the benchmark against which all other best picture contenders should be measured . "
p787
g2
tp788
a(S'an incendiary , deeply thought-provoking look at one of the most peculiar ( and peculiarly venomous ) bigotries in our increasingly frightening theocracy'
p789
g2
tp790
a(S"nothing here seems as funny as it did in analyze this , not even joe viterelli as de niro's right-hand goombah . "
p791
g9
tp792
a(S"a suffocating rape-payback horror show that hinges on the subgenre's most enabling victim . . . and an ebullient affection for industrial-model meat freezers . "
p793
g9
tp794
a(S'a pleasant enough movie , held together by skilled ensemble actors . '
p795
g2
tp796
a(S"as green-guts monster movies go , it's a beaut . "
p797
g2
tp798
a(S'the values that have held the enterprise crew together through previous adventures and perils do so again-courage , self-sacrifice and patience under pressure . '
p799
g2
tp800
a(S"4 friends , 2 couples , 2000 miles , and all the pabst blue ribbon beer they can drink - it's the ultimate redneck road-trip . "
p801
g2
tp802
a(S"j . lo will earn her share of the holiday box office pie , although this movie makes one thing perfectly clear : she's a pretty woman , but she's no working girl . "
p803
g9
tp804
a(S'an exciting and involving rock music doc , a smart and satisfying look inside that tumultuous world . '
p805
g2
tp806
a(S"it's not exactly a gourmet meal but the fare is fair , even coming from the drive-thru . "
p807
g2
tp808
a(S"may be spoofing an easy target -- those old '50's giant creature features -- but . . . it acknowledges and celebrates their cheesiness as the reason why people get a kick out of watching them today . "
p809
g2
tp810
a(S"steers turns in a snappy screenplay that curls at the edges ; it's so clever you want to hate it . but he somehow pulls it off . "
p811
g2
tp812
a(S'a portrait of alienation so perfect , it will certainly succeed in alienating most viewers . '
p813
g9
tp814
a(S"a quietly reflective and melancholy new zealand film about an eventful summer in a 13-year-old girl's life . "
p815
g2
tp816
a(S'it throws quirky characters , odd situations , and off-kilter dialogue at us , all as if to say , " look at this ! this is an interesting movie ! " but the film itself is ultimately quite unengaging . '
p817
g9
tp818
a(S'if it tried to do anything more , it would fail and perhaps explode , but at this level of manic whimsy , it is just about right . '
p819
g2
tp820
a(S'if you can get past the fantastical aspects and harsh realities of " the isle " you\'ll get a sock-you-in-the-eye flick that is a visual tour-de-force and a story that is unlike any you will likely see anywhere else . '
p821
g2
tp822
a(S'below is well below expectations . '
p823
g9
tp824
a(S"without shakespeare's eloquent language , the update is dreary and sluggish . "
p825
g9
tp826
a(S"fans of behan's work and of irish movies in general will be rewarded by borstal boy . "
p827
g2
tp828
a(S"fear permeates the whole of stortelling , todd solondz' oftentimes funny , yet ultimately cowardly autocritique . "
p829
g9
tp830
a(S'the new guy does have a heart . now , if it only had a brain . '
p831
g2
tp832
a(S"recalls quiet freak-outs like l'avventura and repulsion . "
p833
g2
tp834
a(S'wow . i have not been this disappointed by a movie in a long time . '
p835
g9
tp836
a(S'clever , brutal and strangely soulful movie . '
p837
g2
tp838
a(S"i can't begin to tell you how tedious , how resolutely unamusing , how thoroughly unrewarding all of this is , and what a reckless squandering of four fine acting talents . . . "
p839
g9
tp840
a(S'an absorbing trip into the minds and motivations of people under stress as well as a keen , unsentimental look at variations on the theme of motherhood . '
p841
g2
tp842
a(S"the biggest problem with roger avary's uproar against the mpaa is that , even in all its director's cut glory , he's made a film that's barely shocking , barely interesting and most of all , barely anything . "
p843
g9
tp844
a(S'a sincere but dramatically conflicted gay coming-of-age tale . '
p845
g9
tp846
a(S'bluto blutarsky , we miss you . '
p847
g9
tp848
a(S'the trouble with making this queen a thoroughly modern maiden is that it also makes her appear foolish and shallow rather than , as was more likely , a victim of mental illness . '
p849
g9
tp850
a(S"it shows that some studios firmly believe that people have lost the ability to think and will forgive any shoddy product as long as there's a little girl-on-girl action . "
p851
g9
tp852
a(S'an original gem about an obsession with time . '
p853
g2
tp854
a(S"our culture is headed down the toilet with the ferocity of a frozen burrito after an all-night tequila bender \x97 and i know this because i've seen 'jackass : the movie . '"
p855
g9
tp856
a(S'the big-screen scooby makes the silly original cartoon seem smart and well-crafted in comparison . '
p857
g9
tp858
a(S'fuller would surely have called this gutsy and at times exhilarating movie a great yarn . '
p859
g2
tp860
a(S'never [sinks] into exploitation . '
p861
g2
tp862
a(S' . . . a polished and relatively sincere piece of escapism . '
p863
g2
tp864
a(S"there's enough science to make it count as educational , and enough beauty to make it unforgettable . "
p865
g2
tp866
a(S"moore's performance impresses almost as much as her work with haynes in 1995's safe . "
p867
g2
tp868
a(S'the gorgeously elaborate continuation of " the lord of the rings " trilogy is so huge that a column of words cannot adequately describe co-writer/director peter jackson\'s expanded vision of j . r . r . tolkien\'s middle-earth . '
p869
g2
tp870
a(S'laggard drama wending its way to an uninspired philosophical epiphany . '
p871
g9
tp872
a(S'the animation and game phenomenon that peaked about three years ago is actually dying a slow death , if the poor quality of pokemon 4 ever is any indication . '
p873
g9
tp874
a(S"it's a drag how nettelbeck sees working women -- or at least this working woman -- for whom she shows little understanding . "
p875
g9
tp876
a(S"while easier to sit through than most of jaglom's self-conscious and gratingly irritating films , it's still tainted by cliches , painful improbability and murky points . "
p877
g9
tp878
a(S'a well-made and often lovely depiction of the mysteries of friendship . '
p879
g2
tp880
a(S"it's mildly interesting to ponder the peculiar american style of justice that plays out here , but it's so muddled and derivative that few will bother thinking it all through . "
p881
g9
tp882
a(S'a masterful film from a master filmmaker , unique in its deceptive grimness , compelling in its fatalist worldview . '
p883
g2
tp884
a(S'reeks of rot and hack work from start to finish . '
p885
g9
tp886
a(S"labute can't avoid a fatal mistake in the modern era : he's changed the male academic from a lower-class brit to an american , a choice that upsets the novel's exquisite balance and shreds the fabric of the film . "
p887
g9
tp888
a(S'imagine kevin smith , the blasphemous bad boy of suburban jersey , if he were stripped of most of his budget and all of his sense of humor . the result might look like vulgar . '
p889
g9
tp890
a(S'too silly to take seriously . '
p891
g9
tp892
a(S'since dahmer resorts to standard slasher flick thrills when it should be most in the mind of the killer , it misses a major opportunity to be truly revelatory about his psyche . '
p893
g9
tp894
a(S"'compleja e intelectualmente retadora , el ladr\xf3n de orqu\xeddeas es uno de esos filmes que vale la pena ver precisamente por su originalidad . '"
p895
g2
tp896
a(S"a tender and touching drama , based on the true story of a troubled african-american's quest to come to terms with his origins , reveals the yearning we all have in our hearts for acceptance within the family circle . "
p897
g2
tp898
a(S'the cumulative effect of the movie is repulsive and depressing . '
p899
g9
tp900
a(S'this film biggest problem ? no laughs . '
p901
g9
tp902
a(S'windtalkers celebrates the human spirit and packs an emotional wallop . '
p903
g2
tp904
a(S'amazingly dopey . '
p905
g9
tp906
a(S'asia authors herself as anna battista , an italian superstar and aspiring directress who just happens to be her own worst enemy . '
p907
g2
tp908
a(S"doug liman , the director of bourne , directs the traffic well , gets a nice wintry look from his locations , absorbs us with the movie's spycraft and uses damon's ability to be focused and sincere . "
p909
g2
tp910
a(S"why , you may ask , why should you buy the movie milk when the tv cow is free ? there's no good answer to that one . "
p911
g9
tp912
a(S"it's clotted with heavy-handed symbolism , dime-store psychology and endless scenic shots that make 105 minutes seem twice as long . "
p913
g9
tp914
a(S'the script by vincent r . nebrida . . . tries to cram too many ingredients into one small pot . '
p915
g9
tp916
a(S"there's undeniable enjoyment to be had from films crammed with movie references , but the fun wears thin -- then out -- when there's nothing else happening . "
p917
g9
tp918
a(S'off the hook is overlong and not well-acted , but credit writer-producer-director adam watstein with finishing it at all . '
p919
g9
tp920
a(S'a cleverly crafted but ultimately hollow mockumentary . '
p921
g9
tp922
a(S'kaufman creates an eerie sense of not only being there at the time of these events but the very night matthew was killed . '
p923
g2
tp924
a(S'[a] soulless , stupid sequel . . . '
p925
g9
tp926
a(S'surprisingly , considering that baird is a former film editor , the movie is rather choppy . '
p927
g9
tp928
a(S"by presenting an impossible romance in an impossible world , pumpkin dares us to say why either is impossible -- which forces us to confront what's possible and what we might do to make it so . "
p929
g2
tp930
a(S'boisterous , heartfelt comedy . '
p931
g2
tp932
a(S"[carvey's] characters are both overplayed and exaggerated , but then again , subtlety has never been his trademark . "
p933
g9
tp934
a(S"it won't harm anyone , but neither can i think of a very good reason to rush right out and see it . after all , it'll probably be in video stores by christmas , and it might just be better suited to a night in the living room than a night at the movies . "
p935
g9
tp936
a(S'morton is , as usual , brilliant . '
p937
g2
tp938
a(S'the film provides some great insight into the neurotic mindset of all comics -- even those who have reached the absolute top of the game . '
p939
g2
tp940
a(S'a masterpiece four years in the making . '
p941
g2
tp942
a(S'greengrass has delivered an undoubted stylistic tour-de-force , and has managed elements such as sound and cinematography with skill'
p943
g2
tp944
a(S"still pretentious and filled with subtext , but entertaining enough at 'face value' to recommend to anyone looking for something different . "
p945
g2
tp946
a(S'a whole lot foul , freaky and funny . '
p947
g2
tp948
a(S'fluffy and disposible . '
p949
g9
tp950
a(S'one of the greatest romantic comedies of the past decade . '
p951
g2
tp952
a(S'a pleasant enough comedy that should have found a summer place . '
p953
g2
tp954
a(S"there is a difference between movies with the courage to go over the top and movies that don't care about being stupid"
p955
g9
tp956
a(S"silly stuff , all mixed up together like a term paper from a kid who can't quite distinguish one sci-fi work from another . "
p957
g9
tp958
a(S'provides an intriguing window into the imagination and hermetic analysis of todd solondz . '
p959
g2
tp960
a(S' . . . a weak and ineffective ghost story without a conclusion or pay off . '
p961
g9
tp962
a(S'branagh , in his most forceful non-shakespeare screen performance , grounds even the softest moments in the angry revolt of his wit . '
p963
g2
tp964
a(S"as a witness to several greek-american weddings -- but , happily , a victim of none -- i can testify to the comparative accuracy of ms . vardalos' memories and insights . "
p965
g2
tp966
a(S'a well-made thriller with a certain level of intelligence and non-reactionary morality . '
p967
g2
tp968
a(S"while the glass slipper doesn't quite fit , pumpkin is definitely a unique modern fairytale . "
p969
g2
tp970
a(S'i enjoyed time of favor while i was watching it , but i was surprised at how quickly it faded from my memory . '
p971
g2
tp972
a(S'what ultimately makes windtalkers a disappointment is the superficial way it deals with its story . '
p973
g9
tp974
a(S'strangely comes off as a kingdom more mild than wild . '
p975
g9
tp976
a(S'a showcase for both the scenic splendor of the mountains and for legendary actor michel serrault , the film is less successful on other levels . '
p977
g9
tp978
a(S'the jokes are flat , and the action looks fake . '
p979
g9
tp980
a(S'exploitative and largely devoid of the depth or sophistication that would make watching such a graphic treatment of the crimes bearable . '
p981
g9
tp982
a(S'[swimfan] falls victim to sloppy plotting , an insultingly unbelievable final act and a villainess who is too crazy to be interesting . '
p983
g9
tp984
a(S'a seriously bad film with seriously warped logic by writer-director kurt wimmer at the screenplay level . '
p985
g9
tp986
a(S'a sham construct based on theory , sleight-of-hand , and ill-wrought hypothesis . '
p987
g9
tp988
a(S'very solid , very watchable first feature for director peter sheridan'
p989
g2
tp990
a(S"as a singular character study , it's perfect . it's also the year's sweetest movie . "
p991
g2
tp992
a(S"the problem is not that it's all derivative , because plenty of funny movies recycle old tropes . the problem is that van wilder does little that is actually funny with the material . "
p993
g9
tp994
a(S"it ultimately stands forth as an important chronicle of the abuses of one of latin america's most oppressive regimes . "
p995
g2
tp996
a(S'the direction occasionally rises to the level of marginal competence , but for most of the film it is hard to tell who is chasing who or why . '
p997
g9
tp998
a(S"one of [herzog's] least inspired works . "
p999
g2
tp1000
a(S'what starts off as a potentially incredibly twisting mystery becomes simply a monster chase film . '
p1001
g9
tp1002
a(S'now trimmed by about 20 minutes , this lavish three-year-old production has enough grandeur and scale to satisfy as grown-up escapism . '
p1003
g2
tp1004
a(S'finally , a genre movie that delivers -- in a couple of genres , no less . '
p1005
g2
tp1006
a(S"imagine the cleanflicks version of 'love story , ' with ali macgraw's profanities replaced by romance-novel platitudes . "
p1007
g9
tp1008
a(S'lends itself to the narcotizing bland ( sinister , though not nearly so sinister as the biennial disney girl movie ) machinations of the biennial disney boy movie . '
p1009
g2
tp1010
a(S'even in the summertime , the most restless young audience deserves the dignity of an action hero motivated by something more than franchise possibilities . '
p1011
g9
tp1012
a(S' . . . what a banal bore the preachy circuit turns out to be'
p1013
g9
tp1014
a(S'the worst film of the year . '
p1015
g9
tp1016
a(S"i'm sure the filmmakers found this a remarkable and novel concept , but anybody who has ever seen an independent film can report that it is instead a cheap clich\xe9 . "
p1017
g9
tp1018
a(S'cloaks a familiar anti-feminist equation ( career - kids = misery ) in tiresome romantic-comedy duds . '
p1019
g9
tp1020
a(S"there's something unintentionally comic in the film's drumbeat about authenticity , given the stale plot and pornographic way the film revels in swank apartments , clothes and parties . "
p1021
g9
tp1022
a(S'a dramatic comedy as pleasantly dishonest and pat as any hollywood fluff . '
p1023
g9
tp1024
a(S"viewed on its own terms , treasure planet is better-than-average family entertainment , but true fans of the stevenson's novel will likely prefer disney's more faithful 1950 live-action swashbuckling classic . "
p1025
g2
tp1026
a(S'with a cast that includes some of the top actors working in independent film , lovely & amazing involves us because it is so incisive , so bleakly amusing about how we go about our lives . '
p1027
g2
tp1028
a(S'[schweiger is] talented and terribly charismatic , qualities essential to both movie stars and social anarchists . '
p1029
g2
tp1030
a(S"there's the plot , and a maddeningly insistent and repetitive piano score that made me want to scream . "
p1031
g9
tp1032
a(S'a budget affair that exposes the generally sad existence of the bedouins while providing a precious twinkle of insight into their lives . '
p1033
g2
tp1034
a(S'edited and shot with a syncopated style mimicking the work of his subjects , pray turns the idea of the documentary on its head , making it rousing , invigorating fun lacking any mtv puffery . '
p1035
g2
tp1036
a(S'a few artsy flourishes aside , narc is as gritty as a movie gets these days . '
p1037
g2
tp1038
a(S'i love the way that it took chances and really asks you to take these great leaps of faith and pays off . '
p1039
g2
tp1040
a(S"another useless recycling of a brutal mid-'70s american sports movie . "
p1041
g9
tp1042
a(S'a smart , sweet and playful romantic comedy . '
p1043
g2
tp1044
a(S'newton draws our attention like a magnet , and acts circles around her better known co-star , mark wahlberg . '
p1045
g2
tp1046
a(S'there may have been a good film in " trouble every day , " but it is not what is on the screen . '
p1047
g9
tp1048
a(S"while mcfarlane's animation lifts the film firmly above the level of other coming-of-age films . . . it's also so jarring that it's hard to get back into the boys' story . "
p1049
g2
tp1050
a(S'tsai ming-liang has taken his trademark style and refined it to a crystalline point . '
p1051
g2
tp1052
a(S'hilarious , acidic brit comedy . '
p1053
g2
tp1054
a(S'alternately frustrating and rewarding . '
p1055
g9
tp1056
a(S' " extreme ops " exceeds expectations . good fun , good action , good acting , good dialogue , good pace , good cinematography . '
p1057
g2
tp1058
a(S"as weber and weissman demonstrate with such insight and celebratory verve , the cockettes weren't as much about gender , sexual preference or political agitprop as they were simply a triumph of the indomitable human will to rebel , connect and create . "
p1059
g2
tp1060
a(S'the director , steven shainberg , has succeeded by focusing intently on his characters , making them quirky individuals rather than figures of fun . '
p1061
g2
tp1062
a(S"you don't have to be an especially tough grader to give a charitable b-minus to the emperor's club . "
p1063
g2
tp1064
a(S'woody allen has really found his groove these days . the problem is that it is one that allows him to churn out one mediocre movie after another . '
p1065
g9
tp1066
a(S'absorbing and disturbing -- perhaps more disturbing than originally intended -- but a little clarity would have gone a long way . '
p1067
g2
tp1068
a(S"the appearance of treebeard and gollum's expanded role will either have you loving what you're seeing , or rolling your eyes . i loved it ! gollum's 'performance' is incredible ! "
p1069
g2
tp1070
a(S'a refreshing korean film about five female high school friends who face an uphill battle when they try to take their relationships into deeper waters . '
p1071
g2
tp1072
a(S'[at least] moore is a real charmer . '
p1073
g9
tp1074
a(S'gets better after foster leaves that little room . '
p1075
g9
tp1076
a(S"viewers are asked so often to suspend belief that were it not for holm's performance , the film would be a total washout . "
p1077
g9
tp1078
a(S"it's one of the saddest films i have ever seen that still manages to be uplifting but not overly sentimental . "
p1079
g2
tp1080
a(S"it's a movie -- and an album -- you won't want to miss . "
p1081
g2
tp1082
a(S'[javier bardem is] one of the few reasons to watch the film , which director gerardo vera has drenched in swoony music and fever-pitched melodrama . '
p1083
g9
tp1084
a(S" at its best , it's black hawk down with more heart . at its worst , it's rambo- meets-john ford . "
p1085
g9
tp1086
a(S"the next big thing's not-so-big ( and not-so-hot ) directorial debut . "
p1087
g9
tp1088
a(S' . . . mesmerizing , an eye-opening tour of modern beijing culture in a journey of rebellion , retreat into oblivion and return . '
p1089
g2
tp1090
a(S"peralta's mythmaking could have used some informed , adult hindsight . "
p1091
g9
tp1092
a(S'the inherent limitations of using a video game as the source material movie are once again made all too clear in this schlocky horror/action hybrid . '
p1093
g9
tp1094
a(S"what little grace [rifkin's] tale of precarious skid-row dignity achieves is pushed into the margins by predictable plotting and tiresome histrionics . "
p1095
g9
tp1096
a(S"an erotic thriller that's neither too erotic nor very thrilling , either . "
p1097
g9
tp1098
a(S"with mcconaughey in an entirely irony-free zone and bale reduced mainly to batting his sensitive eyelids , there's not enough intelligence , wit or innovation on the screen to attract and sustain an older crowd . "
p1099
g9
tp1100
a(S' . . . a bland murder-on-campus yawner . '
p1101
g9
tp1102
a(S'this boisterous comedy serves up a cruel reminder of the fate of hundreds of thousands of chinese , one which can only qualify as a terrible tragedy . '
p1103
g2
tp1104
a(S"the film delivers not just the full assault of reno's immense wit and insight , but a time travel back to what it felt like during those unforgettably uncertain days . "
p1105
g2
tp1106
a(S"not a cozy or ingratiating work , but it's challenging , sometimes clever , and always interesting , and those are reasons enough to see it . "
p1107
g2
tp1108
a(S'a screenplay more ingeniously constructed than " memento " '
p1109
g2
tp1110
a(S'i complain all the time about seeing the same ideas repeated in films over and over again , but the bourne identity proves that a fresh take is always possible . '
p1111
g2
tp1112
a(S'tries to work in the same vein as the brilliance of animal house but instead comes closer to the failure of the third revenge of the nerds sequel . '
p1113
g9
tp1114
a(S'a lame romantic comedy about an unsympathetic character and someone who would not likely be so stupid as to get involved with her . '
p1115
g9
tp1116
a(S'the script becomes lifeless and falls apart like a cheap lawn chair . '
p1117
g9
tp1118
a(S"the movie is as padded as allen's jelly belly . "
p1119
g9
tp1120
a(S'an exhilarating experience . '
p1121
g2
tp1122
a(S'the movie is a blast of educational energy , as bouncy animation and catchy songs escort you through the entire 85 minutes . '
p1123
g2
tp1124
a(S'the film has just enough of everything -- re-enactments , archival footage , talking-head interviews -- and the music is simply sublime . '
p1125
g2
tp1126
a(S"while van wilder may not be the worst national lampoon film , it's far from being this generation's animal house . "
p1127
g9
tp1128
a(S'karmen moves like rhythm itself , her lips chanting to the beat , her long , braided hair doing little to wipe away the jeweled beads of sweat . '
p1129
g2
tp1130
a(S"ray liotta and jason patric do some of their best work in their underwritten roles , but don't be fooled : nobody deserves any prizes here . "
p1131
g2
tp1132
a(S'an intelligent fiction about learning through cultural clash . '
p1133
g2
tp1134
a(S"moore's complex and important film is also , believe it or not , immensely entertaining , a david and goliath story that's still very much playing itself out . "
p1135
g2
tp1136
a(S'fisher has bared his soul and confronted his own shortcomings here in a way . . . that feels very human and very true to life . '
p1137
g2
tp1138
a(S"john carlen's script is full of unhappy , two-dimensional characters who are anything but compelling . "
p1139
g9
tp1140
a(S"we get some truly unique character studies and a cross-section of americana that hollywood couldn't possibly fictionalize and be believed . "
p1141
g2
tp1142
a(S"with the film's striking ending , one realizes that we have a long way to go before we fully understand all the sexual permutations involved . "
p1143
g2
tp1144
a(S'spielberg is the rare director who does not want to invite viewers to gawk at or applaud his special effects . he just wants them to be part of the action , the wallpaper of his chosen reality . here , thankfully , they are . '
p1145
g2
tp1146
a(S'narratively , trouble every day is a plodding mess . '
p1147
g9
tp1148
a(S'sex ironically has little to do with the story , which becomes something about how lame it is to try and evade your responsibilities and that you should never , ever , leave a large dog alone with a toddler . but never mind all that ; the boobs are fantasti'
p1149
g9
tp1150
a(S'most of crush is a clever and captivating romantic comedy with a welcome pinch of tartness . '
p1151
g2
tp1152
a(S' . . . a poignant and powerful narrative that reveals that reading writing and arithmetic are not the only subjects to learn in life . '
p1153
g2
tp1154
a(S"behan himself knew how to spin a tale and one can't help but think he'd appreciate this attempt to turn his life into art . "
p1155
g2
tp1156
a(S'a mechanical action-comedy whose seeming purpose is to market the charismatic jackie chan to even younger audiences . '
p1157
g9
tp1158
a(S"i'm not saying that ice age doesn't have some fairly pretty pictures , but there's not enough substance in the story to actually give them life . "
p1159
g9
tp1160
a(S'journalistically dubious , inept and often lethally dull . '
p1161
g9
tp1162
a(S"while the ensemble player who gained notice in guy ritchie's lock , stock and two smoking barrels and snatch has the bod , he's unlikely to become a household name on the basis of his first starring vehicle . "
p1163
g9
tp1164
a(S"renner's performance as dahmer is unforgettable , deeply absorbing . "
p1165
g2
tp1166
a(S'this examination of aquatic life off the shores of the baja california peninsula of mexico offers an engrossing way to demonstrate the virtues of the imax format . '
p1167
g2
tp1168
a(S"even if the enticing prospect of a lot of nubile young actors in a film about campus depravity didn't fade amid the deliberate , tiresome ugliness , it would be rendered tedious by avary's failure to construct a story with even a trace of dramatic interest . "
p1169
g9
tp1170
a(S"sure , it's more of the same , but as the film proves , that's not always a bad thing . "
p1171
g2
tp1172
a(S"stevenson's performance is at once clueless and fiercely committed , a volatile combination . "
p1173
g2
tp1174
a(S"the pleasures of super troopers may be fleeting , but they'll register strongly with anybody who still retains a soft spot for precollegiate humor . "
p1175
g2
tp1176
a(S"jacquot's tosca is a treat . "
p1177
g2
tp1178
a(S"jonathan parker's bartleby should have been the be-all-end-all of the modern-office anomie films . "
p1179
g9
tp1180
a(S"for anyone who remembers the '60s or is interested in one man's response to stroke , ram dass : fierce grace is worth seeking out . "
p1181
g2
tp1182
a(S"haynes has so fanatically fetishized every bizarre old-movie idiosyncrasy with such monastic devotion you're not sure if you should applaud or look into having him committed . "
p1183
g2
tp1184
a(S'the movie is a mess from start to finish . '
p1185
g9
tp1186
a(S"if your senses haven't been dulled by slasher films and gorefests , if you're a connoisseur of psychological horror , this is your ticket . "
p1187
g2
tp1188
a(S"disney has always been hit-or-miss when bringing beloved kids' books to the screen . . . tuck everlasting is a little of both . "
p1189
g2
tp1190
a(S'this 100-minute movie only has about 25 minutes of decent material . '
p1191
g9
tp1192
a(S'several degrees shy of the gross-out contests one expects from current teen fare . '
p1193
g2
tp1194
a(S"it's sort of a 21st century morality play with a latino hip hop beat . but the second half of the movie really goes downhill . "
p1195
g9
tp1196
a(S'a mimetic approximation of better films like contempt and 8 1/2 . '
p1197
g9
tp1198
a(S'unintelligible , poorly acted , brain-slappingly bad , harvard man is ludicrous enough that it could become a cult classic . '
p1199
g9
tp1200
a(S'with this new rollerball , sense and sensibility have been overrun by what can only be characterized as robotic sentiment . '
p1201
g9
tp1202
a(S"a movie more to be prescribed than recommended -- as visually bland as a dentist's waiting room , complete with soothing muzak and a cushion of predictable narrative rhythms . "
p1203
g9
tp1204
a(S"i don't even care that there's no plot in this antonio banderas-lucy liu faceoff . it's still terrible ! "
p1205
g9
tp1206
a(S"stealing harvard doesn't care about cleverness , wit or any other kind of intelligent humor . "
p1207
g9
tp1208
a(S"the sheer dumbness of the plot ( other than its one good idea ) and the movie's inescapable air of sleaziness get you down . "
p1209
g9
tp1210
a(S'unfortunately the story and the actors are served with a hack script . '
p1211
g9
tp1212
a(S'the film starts promisingly , but the ending is all too predictable and far too cliched to really work . '
p1213
g9
tp1214
a(S"it's an old story , but a lively script , sharp acting and partially animated interludes make just a kiss seem minty fresh . "
p1215
g2
tp1216
a(S'the rock is destined to be the 21st century\'s new " conan " and that he\'s going to make a splash even greater than arnold schwarzenegger , jean-claud van damme or steven segal . '
p1217
g2
tp1218
a(S'like most bond outings in recent years , some of the stunts are so outlandish that they border on being cartoonlike . a heavy reliance on cgi technology is beginning to creep into the series . '
p1219
g2
tp1220
a(S' . . . a weak , manipulative , pencil-thin story that is miraculously able to entertain anyway . '
p1221
g2
tp1222
a(S'all movie long , city by the sea swings from one approach to the other , but in the end , it stays in formula -- which is a waste of de niro , mcdormand and the other good actors in the cast . '
p1223
g9
tp1224
a(S'though this film can be clumsy , its ambitions are equally -- and admirably -- uncommercial . '
p1225
g2
tp1226
a(S"it's a minor comedy that tries to balance sweetness with coarseness , while it paints a sad picture of the singles scene . "
p1227
g2
tp1228
a(S'the film favors the scientific over the spectacular ( visually speaking ) . '
p1229
g9
tp1230
a(S"one can only assume that the jury who bestowed star hoffman's brother gordy with the waldo salt screenwriting award at 2002's sundance festival were honoring an attempt to do something different over actually pulling it off"
p1231
g9
tp1232
a(S'notorious c . h . o . has oodles of vulgar highlights . '
p1233
g2
tp1234
a(S"blue crush is so prolonged and boring it isn't even close to being the barn-burningly bad movie it promised it would be . "
p1235
g9
tp1236
a(S"steve irwin's method is ernest hemmingway at accelerated speed and volume . "
p1237
g2
tp1238
a(S'bisset delivers a game performance , but she is unable to save the movie . '
p1239
g9
tp1240
a(S"most impressive , though , is the film's open-ended finale that refuses to entirely close its characters' emotional wounds . "
p1241
g2
tp1242
a(S"takes one character we don't like and another we don't believe , and puts them into a battle of wills that is impossible to care about and isn't very funny . "
p1243
g9
tp1244
a(S'a generic international version of a typical american horror film . '
p1245
g9
tp1246
a(S'some of the computer animation is handsome , and various amusing sidekicks add much-needed levity to the otherwise bleak tale , but overall the film never rises above mediocrity . '
p1247
g9
tp1248
a(S'this delicately observed story , deeply felt and masterfully stylized , is a triumph for its maverick director . '
p1249
g2
tp1250
a(S'this cloying , voices-from-the-other-side story is hell . '
p1251
g9
tp1252
a(S'it suggests the wide-ranging effects of media manipulation , from the kind of reporting that is done by the supposedly liberal media . . . to the intimate and ultimately tragic heartache of maverick individuals like hatfield and hicks . '
p1253
g2
tp1254
a(S"gussied up with so many distracting special effects and visual party tricks that it's not clear whether we're supposed to shriek or laugh . "
p1255
g9
tp1256
a(S'absorbing character study by andr\xe9 turpin . '
p1257
g2
tp1258
a(S"boy oh boy , it's a howler . "
p1259
g9
tp1260
a(S'hayek is stunning as frida and . . . a star-making project . '
p1261
g2
tp1262
a(S'energetic and boldly provocative . '
p1263
g2
tp1264
a(S"equlibrium could pass for a thirteen-year-old's book report on the totalitarian themes of 1984 and farenheit 451 . "
p1265
g9
tp1266
a(S'the film makes a strong case for the importance of the musicians in creating the motown sound . '
p1267
g2
tp1268
a(S'the story feels more like a serious read , filled with heavy doses of always enticing sayles dialogue . '
p1269
g2
tp1270
a(S"it's a hoot and a half , and a great way for the american people to see what a candidate is like when he's not giving the same 15-cent stump speech . "
p1271
g2
tp1272
a(S'what makes the movie a comedy is the way it avoids the more serious emotions involved . '
p1273
g2
tp1274
a(S'adults , other than the parents . . . will be hard pressed to succumb to the call of the wild . '
p1275
g9
tp1276
a(S'silly , loud and goofy . '
p1277
g9
tp1278
a(S"what you expect is just what you get . . . assuming the bar of expectations hasn't been raised above sixth-grade height . "
p1279
g9
tp1280
a(S'suffers from over-familiarity since hit-hungry british filmmakers have strip-mined the monty formula mercilessly since 1997 . '
p1281
g9
tp1282
a(S'[villeneuve] seems to realize intuitively that even morality is reduced to an option by the ultimate mysteries of life and death . '
p1283
g2
tp1284
a(S'a humorless journey into a philosophical void . '
p1285
g9
tp1286
a(S'an impossible romance , but we root for the patronized iranian lad . '
p1287
g2
tp1288
a(S"not only are the film's sopranos gags incredibly dated and unfunny , they also demonstrate how desperate the makers of this 'we're -doing-it-for -the-cash' sequel were . "
p1289
g9
tp1290
a(S"however stale the material , lawrence's delivery remains perfect ; his great gift is that he can actually trick you into thinking some of this worn-out , pandering palaver is actually funny . "
p1291
g9
tp1292
a(S'directed without the expected flair or imagination by hong kong master john woo , windtalkers airs just about every cliche in the war movie compendium across its indulgent two-hour-and-fifteen-minute length . '
p1293
g9
tp1294
a(S'like dickens with his passages , mcgrath crafts quite moving scenes throughout his resolutely dramatic variation on the novel . '
p1295
g2
tp1296
a(S'windtalkers is shapelessly gratifying , the kind of movie that invites you to pick apart its faults even as you have to admit that somehow it hit you where you live . '
p1297
g2
tp1298
a(S'you walk out of the good girl with mixed emotions \x97 disapproval of justine combined with a tinge of understanding for her actions . '
p1299
g2
tp1300
a(S"viewed as a comedy , a romance , a fairy tale , or a drama , there's nothing remotely triumphant about this motion picture . "
p1301
g9
tp1302
a(S'feels like a cold old man going through the motions . '
p1303
g9
tp1304
a(S"they kept much of the plot but jettisoned the stuff that would make this a moving experience for people who haven't read the book . "
p1305
g9
tp1306
a(S"adam sandler's eight crazy nights grows on you -- like a rash . "
p1307
g9
tp1308
a(S'plotless collection of moronic stunts is by far the worst movie of the year . '
p1309
g9
tp1310
a(S'none of this is half as moving as the filmmakers seem to think . '
p1311
g9
tp1312
a(S"you could say that it's slow at times , you could say that a few of the characters act in ways that real people wouldn't , but one thing you couldn't say is that alias betty is predictable . "
p1313
g2
tp1314
a(S'longley has constructed a remarkably coherent , horrifically vivid snapshot of those turbulent days . '
p1315
g2
tp1316
a(S'it could change america , not only because it is full of necessary discussion points , but because it is so accessible that it makes complex politics understandable to viewers looking for nothing but energetic entertainment . '
p1317
g2
tp1318
a(S"together , tok and o orchestrate a buoyant , darkly funny dance of death . in the process , they demonstrate that there's still a lot of life in hong kong cinema . "
p1319
g2
tp1320
a(S"one of the best examples of how to treat a subject , you're not fully aware is being examined , much like a photo of yourself you didn't know was being taken . "
p1321
g2
tp1322
a(S'banal and predictable . '
p1323
g9
tp1324
a(S'resourceful and ingenious entertainment . '
p1325
g2
tp1326
a(S'expanded to 65 minutes for theatrical release , it still feels somewhat unfinished . '
p1327
g9
tp1328
a(S" . . . while certainly clever in spots , this too-long , spoofy update of shakespeare's macbeth doesn't sustain a high enough level of invention . "
p1329
g9
tp1330
a(S'this is an ungainly movie , ill-fitting , with its elbows sticking out where the knees should be . '
p1331
g9
tp1332
a(S"it's almost impossible not to be moved by the movie's depiction of sacrifice and its stirring epilogue in post-soviet russia . "
p1333
g2
tp1334
a(S'director oliver parker labors so hard to whip life into the importance of being earnest that he probably pulled a muscle or two . '
p1335
g9
tp1336
a(S"a sports movie with action that's exciting on the field and a story you care about off it . "
p1337
g2
tp1338
a(S'the script falls back on too many tried-and-true shenanigans that hardly distinguish it from the next teen comedy . '
p1339
g9
tp1340
a(S'the gags , and the script , are a mixed bag . '
p1341
g9
tp1342
a(S'wait for it to hit cable . '
p1343
g9
tp1344
a(S'illuminating if overly talky documentary . '
p1345
g2
tp1346
a(S'this is a film well worth seeing , talking and singing heads and all . '
p1347
g2
tp1348
a(S"so mind-numbingly awful that you hope britney won't do it one more time , as far as movies are concerned . "
p1349
g9
tp1350
a(S'do you say " hi " to your lover when you wake up in the morning ? '
p1351
g9
tp1352
a(S'too slow for a younger crowd , too shallow for an older one . '
p1353
g9
tp1354
a(S"falsehoods pile up , undermining the movie's reality and stifling its creator's comic voice . "
p1355
g9
tp1356
a(S"director tom dey demonstrated a knack for mixing action and idiosyncratic humor in his charming 2000 debut shanghai noon , but showtime's uninspired send-up of tv cop show cliches mostly leaves him shooting blanks . "
p1357
g9
tp1358
a(S'the tug of war that ensues is as much a snapshot of modern china in microcosm as it is a crash course in movie mythology . '
p1359
g2
tp1360
a(S'so riddled with unanswered questions that it requires gargantuan leaps of faith just to watch it plod along . '
p1361
g9
tp1362
a(S'a tired , unimaginative and derivative variation of that already-shallow genre . '
p1363
g9
tp1364
a(S'the experience of watching blobby old-school cgi animation in this superlarge format is just surreal enough to be diverting . '
p1365
g2
tp1366
a(S"on the surface , it's a lovers-on-the-run crime flick , but it has a lot in common with piesiewicz's and kieslowski's earlier work , films like the double life of veronique . "
p1367
g2
tp1368
a(S'the problem with antwone fisher is that it has a screenplay written by antwone fisher based on the book by antwone fisher . '
p1369
g9
tp1370
a(S'an idealistic love story that brings out the latent 15-year-old romantic in everyone . '
p1371
g2
tp1372
a(S"romanek keeps the film constantly taut . . . reflecting the character's instability with a metaphorical visual style and an unnerving , heartbeat-like score . "
p1373
g2
tp1374
a(S'though this saga would be terrific to read about , it is dicey screen material that only a genius should touch . '
p1375
g9
tp1376
a(S'its scenes and sensibility are all more than familiar , but it exudes a kind of nostalgic spy-movie charm and , at the same time , is so fresh and free of the usual thriller nonsense that it all seems to be happening for the first time . '
p1377
g2
tp1378
a(S'an uneven but intriguing drama that is part homage and part remake of the italian masterpiece . '
p1379
g2
tp1380
a(S'as is often the case with ambitious , eager first-time filmmakers , mr . murray , a prolific director of music videos , stuffs his debut with more plot than it can comfortably hold . '
p1381
g9
tp1382
a(S'never mind whether you buy the stuff about barris being a cia hit man . the kooky yet shadowy vision clooney sustains throughout is daring , inventive and impressive . '
p1383
g2
tp1384
a(S'interesting , but not compelling . '
p1385
g9
tp1386
a(S'a pro-fat farce that overcomes much of its excessive moral baggage thanks to two appealing lead performances . '
p1387
g2
tp1388
a(S"ultimately , the message of trouble every day seems to be that all sexual desire disrupts life's stasis . "
p1389
g2
tp1390
a(S'the film runs on equal parts of innocence and wisdom -- wisdom that comes with experience . it has fun being grown up . '
p1391
g2
tp1392
a(S'unfortunately , kapur modernizes a . e . w . mason\'s story to suit the sensibilities of a young american , a decision that plucks " the four feathers " bare . '
p1393
g9
tp1394
a(S"this version's no classic like its predecessor , but its pleasures are still plentiful . "
p1395
g2
tp1396
a(S'solaris " is a shapeless inconsequential move relying on the viewer to do most of the work . '
p1397
g9
tp1398
a(S'while this film is not in the least surprising , it is still ultimately very satisfying . think of it as a sort of comfort food for the mind . '
p1399
g2
tp1400
a(S'the transporter is as lively and as fun as it is unapologetically dumb'
p1401
g2
tp1402
a(S'swinging , the film makes it seem , is not a hobby that attracts the young and fit . or intelligent . '
p1403
g9
tp1404
a(S"the film is faithful to what one presumes are the book's twin premises -- that we become who we are on the backs of our parents , but we have no idea who they were at our age ; and that time is a fleeting and precious commodity no matter how old you are . "
p1405
g2
tp1406
a(S"the effort is sincere and the results are honest , but the film is so bleak that it's hardly watchable . "
p1407
g9
tp1408
a(S'cuba gooding jr . valiantly mugs his way through snow dogs , but even his boisterous energy fails to spark this leaden comedy . '
p1409
g9
tp1410
a(S"an alternately raucous and sappy ethnic sitcom . . . you'd be wise to send your regrets . "
p1411
g9
tp1412
a(S'somewhere in the middle , the film compels , as demme experiments he harvests a few movie moment gems , but the field of roughage dominates . '
p1413
g9
tp1414
a(S'few films this year have been as resolute in their emotional nakedness . '
p1415
g2
tp1416
a(S'mr . parker has brilliantly updated his source and grasped its essence , composing a sorrowful and hilarious tone poem about alienated labor , or an absurdist workplace sitcom . '
p1417
g2
tp1418
a(S'the basic premise is intriguing but quickly becomes distasteful and downright creepy . '
p1419
g9
tp1420
a(S"whether you're moved and love it , or bored or frustrated by the film , you'll still feel something . "
p1421
g2
tp1422
a(S'though its atmosphere is intriguing . . . the drama is finally too predictable to leave much of an impression . '
p1423
g9
tp1424
a(S"by the time you reach the finale , you're likely wondering why you've been watching all this strutting and posturing . "
p1425
g9
tp1426
a(S"walsh can't quite negotiate the many inconsistencies in janice's behavior or compensate for them by sheer force of charm . "
p1427
g9
tp1428
a(S'the notion of deleting emotion from people , even in an advanced prozac nation , is so insanely dysfunctional that the rampantly designed equilibrium becomes a concept doofus . '
p1429
g9
tp1430
a(S'sometimes there are very , very good reasons for certain movies to be sealed in a jar and left on a remote shelf indefinitely . '
p1431
g9
tp1432
a(S'simply put , there should have been a more compelling excuse to pair susan sarandon and goldie hawn . '
p1433
g9
tp1434
a(S'just too silly and sophomoric to ensnare its target audience . '
p1435
g9
tp1436
a(S'my goodness , queen latifah has a lot to offer and she seemed to have no problem flaunting her natural gifts . she must have a very strong back . '
p1437
g2
tp1438
a(S'a big fat pain . '
p1439
g9
tp1440
a(S"this movie . . . doesn't deserve the energy it takes to describe how bad it is . "
p1441
g9
tp1442
a(S'thankfully , the film , which skirts that rapidly deteriorating line between fantasy and reality . . . takes a tongue-in-cheek attitude even as it pushes the croc hunter agenda . '
p1443
g2
tp1444
a(S"visits spy-movie territory like a novel you can't put down , examines a footnote to history seldom brought to light on the screen , and keeps you guessing from first frame to last . "
p1445
g2
tp1446
a(S'an extremely unpleasant film . '
p1447
g9
tp1448
a(S"this dreadfully earnest inversion of the concubine love triangle eschews the previous film's historical panorama and roiling pathos for bug-eyed mugging and gay-niche condescension . "
p1449
g9
tp1450
a(S"directors john musker and ron clements , the team behind the little mermaid , have produced sparkling retina candy , but they aren't able to muster a lot of emotional resonance in the cold vacuum of space . "
p1451
g9
tp1452
a(S'though of particular interest to students and enthusiast of international dance and world music , the film is designed to make viewers of all ages , cultural backgrounds and rhythmic ability want to get up and dance . '
p1453
g2
tp1454
a(S'an ugly-duckling tale so hideously and clumsily told it feels accidental . '
p1455
g9
tp1456
a(S'it is interesting and fun to see goodall and her chimpanzees on the bigger-than-life screen . '
p1457
g2
tp1458
a(S"the director and her capable cast appear to be caught in a heady whirl of new age-inspired good intentions , but the spell they cast isn't the least bit mesmerizing . "
p1459
g9
tp1460
a(S'tim allen is great in his role but never hogs the scenes from his fellow cast , as there are plenty of laughs and good lines for everyone in this comedy . '
p1461
g2
tp1462
a(S'just what makes us happy , anyway ? '
p1463
g2
tp1464
a(S"there are now two signs that m . night shyamalan's debut feature sucked up all he has to give to the mystic genres of cinema : unbreakable and signs . "
p1465
g9
tp1466
a(S"resident evil isn't a product of its cinematic predecessors so much as an mtv , sugar hysteria , and playstation cocktail . "
p1467
g9
tp1468
a(S'the pool drowned me in boredom . '
p1469
g9
tp1470
a(S'the plot plummets into a comedy graveyard before janice comes racing to the rescue in the final reel . '
p1471
g9
tp1472
a(S'please , someone , stop eric schaeffer before he makes another film . '
p1473
g9
tp1474
a(S'terminally brain dead production . '
p1475
g9
tp1476
a(S"it's this memory-as-identity obviation that gives secret life its intermittent unease , reaffirming that long-held illusions are indeed reality , and that erasing them recasts the self . "
p1477
g2
tp1478
a(S" . . . jones , despite a definitely distinctive screen presence , just isn't able to muster for a movie that , its title notwithstanding , should have been a lot nastier if it wanted to fully capitalize on its lead's specific gifts . "
p1479
g9
tp1480
a(S'[an] hilarious romantic comedy . '
p1481
g2
tp1482
a(S'one of the oddest and most inexplicable sequels in movie history . '
p1483
g9
tp1484
a(S"unfortunately , it's also not very good . especially compared with the television series that inspired the movie . "
p1485
g9
tp1486
a(S'star trek was kind of terrific once , but now it is a copy of a copy of a copy . '
p1487
g9
tp1488
a(S'bad company . bad movie . just plain bad . '
p1489
g9
tp1490
a(S'although disney follows its standard formula in this animated adventure , it feels more forced than usual . '
p1491
g9
tp1492
a(S'an ironic speculation on democracy in a culture unaccustomed to it . '
p1493
g2
tp1494
a(S'when it really counts . . . bloody sunday connects on a visceral level that transcends language . '
p1495
g2
tp1496
a(S"adam sandler's heart may be in the right place , but he needs to pull his head out of his butt"
p1497
g9
tp1498
a(S'those who would follow haneke on his creepy explorations . . . are rewarded by brutal , committed performances from huppert and magimel . '
p1499
g2
tp1500
a(S' . . . the gentle melding of drama and comedy makes " what time is it there ? " something the true film buff will enjoy . '
p1501
g2
tp1502
a(S'tuck everlasting achieves a delicate balance of romantic innocence and philosophical depth . '
p1503
g2
tp1504
a(S'a zippy 96 minutes of mediocre special effects , hoary dialogue , fluxing accents , and -- worst of all -- silly-looking morlocks . '
p1505
g9
tp1506
a(S'if nothing else , this movie introduces a promising , unusual kind of psychological horror . '
p1507
g2
tp1508
a(S"the inevitable double- and triple-crosses arise , but the only drama is in waiting to hear how john malkovich's reedy consigliere will pronounce his next line . "
p1509
g9
tp1510
a(S'looks more like a travel-agency video targeted at people who like to ride bikes topless and roll in the mud than a worthwhile glimpse of independent-community guiding lights . '
p1511
g9
tp1512
a(S'irwin and his director never come up with an adequate reason why we should pay money for what we can get on television for free . '
p1513
g9
tp1514
a(S'a processed comedy chop suey . '
p1515
g9
tp1516
a(S"the movie's ripe , enrapturing beauty will tempt those willing to probe its inscrutable mysteries . "
p1517
g2
tp1518
a(S'however sincere it may be , the rising place never quite justifies its own existence . '
p1519
g9
tp1520
a(S"the issues are presented in such a lousy way , complete with some of the year's ( unintentionally ) funniest moments , that it's impossible to care . "
p1521
g9
tp1522
a(S'an absorbing , slice-of-depression life that touches nerves and rings true . '
p1523
g2
tp1524
a(S'yet another iteration of what\'s become one of the movies\' creepiest conventions , in which the developmentally disabled are portrayed with almost supernatural powers to humble , teach and ultimately redeem their mentally " superior " friends , family . . . '
p1525
g9
tp1526
a(S'just as the lousy tarantino imitations have subsided , here comes the first lousy guy ritchie imitation . '
p1527
g9
tp1528
a(S"high on melodrama . but it's emotionally engrossing , too , thanks to strong , credible performances from the whole cast . "
p1529
g2
tp1530
a(S'a direct-to-void release , heading nowhere . '
p1531
g9
tp1532
a(S'for all its serious sense of purpose . . . [it] finds a way to lay bare the tragedies of its setting with a good deal of warmth and humor . '
p1533
g2
tp1534
a(S'though her fans will assuredly have their funny bones tickled , others will find their humor-seeking dollars best spent elsewhere . '
p1535
g9
tp1536
a(S'every potential twist is telegraphed well in advance , every performance respectably muted ; the movie itself seems to have been made under the influence of rohypnol . '
p1537
g9
tp1538
a(S'stay clear of reminding yourself that it\'s a " true story " and you\'re likely to have one helluva time at the movies . '
p1539
g2
tp1540
a(S"at about 95 minutes , treasure planet maintains a brisk pace as it races through the familiar story . however , it lacks grandeur and that epic quality often associated with stevenson's tale as well as with earlier disney efforts . "
p1541
g2
tp1542
a(S"you might not buy the ideas . but you'll definitely want the t-shirt . "
p1543
g2
tp1544
a(S'the mystery of enigma is how a rich historical subject , combined with so much first-rate talent . . . could have yielded such a flat , plodding picture . '
p1545
g9
tp1546
a(S'director kapur is a filmmaker with a real flair for epic landscapes and adventure , and this is a better film than his earlier english-language movie , the overpraised elizabeth . '
p1547
g2
tp1548
a(S'everything is off . '
p1549
g9
tp1550
a(S"it's obviously struck a responsive chord with many south koreans , and should work its magic in other parts of the world . "
p1551
g2
tp1552
a(S'ultimately feels like just one more in the long line of films this year about the business of making movies . '
p1553
g9
tp1554
a(S'here , common sense flies out the window , along with the hail of bullets , none of which ever seem to hit sascha . '
p1555
g9
tp1556
a(S'low rent from frame one . '
p1557
g9
tp1558
a(S'gosling provides an amazing performance that dwarfs everything else in the film . '
p1559
g2
tp1560
a(S"often gruelling and heartbreaking to witness , but seldahl and wollter's sterling performances raise this far above the level of the usual maudlin disease movie . "
p1561
g2
tp1562
a(S'the level of maturity displayed by this 33-year-old first-time feature director is astonishing , considering her inexperience and her subject matter . '
p1563
g2
tp1564
a(S"in the wake of saving private ryan , black hawk down and we were soldiers , you are likely to be as heartily sick of mayhem as cage's war-weary marine . "
p1565
g9
tp1566
a(S"to better understand why this didn't connect with me would require another viewing , and i won't be sitting through this one again . . . that in itself is commentary enough . "
p1567
g9
tp1568
a(S"cantet perfectly captures the hotel lobbies , two-lane highways , and roadside cafes that permeate vincent's days"
p1569
g2
tp1570
a(S'i admired it , particularly that unexpected downer of an ending . '
p1571
g2
tp1572
a(S"if you liked such movies as notting hill , four weddings and a funeral , bridget jones' diary or high fidelity , then you won't want to miss about a boy . "
p1573
g2
tp1574
a(S'occasionally loud and offensive , but more often , it simply lulls you into a gentle waking coma . '
p1575
g9
tp1576
a(S'this 10th film in the series looks and feels tired . '
p1577
g9
tp1578
a(S"the film is often filled with a sense of pure wonderment and excitement not often seen in today's cinema du sarcasm"
p1579
g2
tp1580
a(S'son of the bride may be a good half-hour too long but comes replete with a flattering sense of mystery and quietness . '
p1581
g2
tp1582
a(S"only about as sexy and dangerous as an actress in a role that reminds at every turn of elizabeth berkley's flopping dolphin-gasm . "
p1583
g9
tp1584
a(S'girls gone wild and gone civil again'
p1585
g2
tp1586
a(S'unlike most teen flicks , swimming takes its time to tell its story , casts mostly little-known performers in key roles , and introduces some intriguing ambiguity . '
p1587
g2
tp1588
a(S'the talents of the actors helps " moonlight mile " rise above its heart-on-its-sleeve writing . '
p1589
g2
tp1590
a(S'the unique tug-of-war with viewer expectations is undeniable , if not a pleasure in its own right . '
p1591
g2
tp1592
a(S"legendary irish writer brendan behan's memoir , borstal boy , has been given a loving screen transferral . "
p1593
g2
tp1594
a(S'a gentle , compassionate drama about grief and healing . '
p1595
g2
tp1596
a(S' . . . hokey art house pretension . '
p1597
g9
tp1598
a(S"if you're like me , a sucker for a good old fashion romance and someone who shamelessly loves to eat , then mostly martha offers all the perfect ingredients to more than satisfy your appetite . "
p1599
g2
tp1600
a(S"it's a count for our times . "
p1601
g2
tp1602
a(S"only in its final surprising shots does rabbit-proof fence find the authority it's looking for . "
p1603
g9
tp1604
a(S"putting the primitive murderer inside a high-tech space station unleashes a pandora's box of special effects that run the gamut from cheesy to cheesier to cheesiest . "
p1605
g9
tp1606
a(S"it's not so much a movie as a joint promotion for the national basketball association and teenaged rap and adolescent poster-boy lil' bow wow . "
p1607
g9
tp1608
a(S" . . . a mostly boring affair with a confusing sudden finale that's likely to irk viewers . "
p1609
g9
tp1610
a(S"having never been a huge fan of dickens' 800-page novel , it surprised me how much pleasure i had watching mcgrath's version . "
p1611
g2
tp1612
a(S'stinks from start to finish , like a wet burlap sack of gloom . '
p1613
g9
tp1614
a(S"the people in dogtown and z-boys are so funny , aggressive and alive , you have to watch them because you can't wait to see what they do next . "
p1615
g2
tp1616
a(S"with flashbulb editing as cover for the absence of narrative continuity , undisputed is nearly incoherent , an excuse to get to the closing bout . . . by which time it's impossible to care who wins . "
p1617
g9
tp1618
a(S'a taut , intelligent psychological drama . '
p1619
g2
tp1620
a(S"it's rare to find a film that dazzles the eye , challenges the brain , and satisfies our lust for fast-paced action , but minority report delivers all that and a whole lot more . "
p1621
g2
tp1622
a(S"when seagal appeared in an orange prison jumpsuit , i wanted to stand up in the theater and shout , 'hey , kool-aid ! '"
p1623
g9
tp1624
a(S"no amount of blood and disintegrating vampire cadavers can obscure this movie's lack of ideas . "
p1625
g9
tp1626
a(S'the respective charms of sandra bullock and hugh grant have worn threadbare . '
p1627
g9
tp1628
a(S'the kind of nervous film that will either give you a mild headache or exhilarate you . '
p1629
g2
tp1630
a(S"cheap , vulgar dialogue and a plot that crawls along at a snail's pace . "
p1631
g9
tp1632
a(S"with the exception of mccoist , the players don't have a clue on the park . the acting isn't much better . "
p1633
g9
tp1634
a(S'one of the most incoherent features in recent memory . '
p1635
g9
tp1636
a(S"this may not have the dramatic gut-wrenching impact of other holocaust films , but it's a compelling story , mainly because of the way it's told by the people who were there . "
p1637
g2
tp1638
a(S'a 75-minute sample of puerile rubbish that is listless , witless , and devoid of anything resembling humor . '
p1639
g9
tp1640
a(S"you might be shocked to discover that seinfeld's real life is boring . "
p1641
g9
tp1642
a(S' " antwone fisher " is an earnest , by-the-numbers effort by washington . it won\'t rock any boats but is solid meat-and-potatoes filmmaking . '
p1643
g2
tp1644
a(S"as spent screen series go , star trek : nemesis is even more suggestive of a 65th class reunion mixer where only eight surviving members show up -- and there's nothing to drink . "
p1645
g9
tp1646
a(S'while not as aggressively impressive as its american counterpart , " in the bedroom , " moretti\'s film makes its own , quieter observations'
p1647
g2
tp1648
a(S'although the editing might have been tighter , hush ! sympathetically captures the often futile lifestyle of young people in modern japan . '
p1649
g2
tp1650
a(S"if no one singles out any of these performances as award-worthy , it's only because we would expect nothing less from this bunch . "
p1651
g2
tp1652
a(S'gaghan . . . has thrown every suspenseful clich\xe9 in the book at this nonsensical story . '
p1653
g9
tp1654
a(S'might best be enjoyed as a daytime soaper . '
p1655
g9
tp1656
a(S"the year's happiest surprise , a movie that deals with a real subject in an always surprising way . "
p1657
g2
tp1658
a(S'truly terrible . '
p1659
g9
tp1660
a(S'a teasing drama whose relentless good-deed/bad-deed reversals are just interesting enough to make a sinner like me pray for an even more interesting , less symmetrical , less obviously cross-shaped creation . '
p1661
g2
tp1662
a(S"children may not understand everything that happens -- i'm not sure even miyazaki himself does -- but they will almost certainly be fascinated , and undoubtedly delighted . "
p1663
g2
tp1664
a(S'katz uses archival footage , horrifying documents of lynchings , still photographs and charming old reel-to-reel recordings of meeropol entertaining his children to create his song history , but most powerful of all is the song itself'
p1665
g2
tp1666
a(S"smith's point is simple and obvious -- people's homes are extensions of themselves , and particularly eccentric people have particularly eccentric living spaces -- but his subjects are charmers . "
p1667
g2
tp1668
a(S'mckay seems embarrassed by his own invention and tries to rush through the intermediary passages , apparently hoping that the audience will not notice the glaring triteness of the plot device he has put in service . '
p1669
g9
tp1670
a(S'crikey indeed . '
p1671
g9
tp1672
a(S'ultimately , in the history of the academy , people may be wondering what all that jazz was about " chicago " in 2002 . zellweger\'s whiny pouty-lipped poof faced and spindly attempt at playing an ingenue makes her nomination as best actress even more of a an a'
p1673
g9
tp1674
a(S'exquisitely acted and masterfully if preciously interwoven\x85 [the film] addresses in a fascinating , intelligent manner the intermingling of race , politics and local commerce . '
p1675
g2
tp1676
a(S"a farce of a parody of a comedy of a premise , it isn't a comparison to reality so much as it is a commentary about our knowledge of films . "
p1677
g9
tp1678
a(S"zhang yimou delivers warm , genuine characters who lie not through dishonesty , but because they genuinely believe it's the only way to bring happiness to their loved ones . "
p1679
g2
tp1680
a(S"there are as many misses as hits , but ultimately , it finds humor in the foibles of human behavior , and it's a welcome return to the roots of a genre that should depend on surprises . "
p1681
g2
tp1682
a(S"the cumulative effect of watching this 65-minute trifle is rather like being trapped while some weird relative trots out the video he took of the family vacation to stonehenge . before long , you're desperate for the evening to end . "
p1683
g9
tp1684
a(S' . . . standard guns versus martial arts cliche with little new added . '
p1685
g9
tp1686
a(S'what we get . . . is caddyshack crossed with the loyal order of raccoons . '
p1687
g9
tp1688
a(S'an unbelievably fun film just a leading man away from perfection . '
p1689
g2
tp1690
a(S'a film of precious increments artfully camouflaged as everyday activities . '
p1691
g2
tp1692
a(S'one of those rare , exhilarating cinematic delights that gets even better in hindsight , as you mull over its every nuance in your mind . '
p1693
g2
tp1694
a(S"unfortunately , carvey's rubber-face routine is no match for the insipid script he has crafted with harris goldberg . "
p1695
g9
tp1696
a(S'by the end of no such thing the audience , like beatrice , has a watchful affection for the monster . '
p1697
g2
tp1698
a(S"during the tuxedo's 90 minutes of screen time , there isn't one true 'chan moment' . "
p1699
g9
tp1700
a(S'wendigo wants to be a monster movie for the art-house crowd , but it falls into the trap of pretention almost every time . '
p1701
g9
tp1702
a(S'really does feel like a short stretched out to feature length . '
p1703
g9
tp1704
a(S"astonishing isn't the word -- neither is incompetent , incoherent or just plain crap . indeed , none of these words really gets at the very special type of badness that is deuces wild . "
p1705
g9
tp1706
a(S'tadpole is a sophisticated , funny and good-natured treat , slight but a pleasure . '
p1707
g2
tp1708
a(S"there's no denying the physically spectacular qualities of the film . . . or the emotional integrity of the performances . "
p1709
g2
tp1710
a(S"i've had more interesting -- and , dare i say , thematically complex -- bowel movements than this long-on-the-shelf , point-and-shoot exercise in gimmicky crime drama . "
p1711
g9
tp1712
a(S'the actors are fantastic . they are what makes it worth the trip to the theatre . '
p1713
g2
tp1714
a(S' . . . breathes surprising new life into the familiar by amalgamating genres and adding true human complexity to its not-so-stock characters . '
p1715
g2
tp1716
a(S"the things this movie tries to get the audience to buy just won't fly with most intelligent viewers . "
p1717
g9
tp1718
a(S'despite the long running time , the pace never feels slack -- there\'s no scene that screams " bathroom break ! " '
p1719
g2
tp1720
a(S"bad in such a bizarre way that it's almost worth seeing , if only to witness the crazy confluence of purpose and taste . "
p1721
g9
tp1722
a(S'these are lives worth watching , paths worth following . '
p1723
g2
tp1724
a(S'a static and sugary little half-hour , after-school special about interfaith understanding , stretched out to 90 minutes . '
p1725
g9
tp1726
a(S"it's all pretty tame . the most offensive thing about the movie is that hollywood expects people to pay to see it . "
p1727
g9
tp1728
a(S" . . . if you're in a mind set for goofy comedy , the troopers will entertain with their gross outs , bawdy comedy and head games . "
p1729
g2
tp1730
a(S'a disturbing and frighteningly evocative assembly of imagery and hypnotic music composed by philip glass . '
p1731
g2
tp1732
a(S"working from elliott's memoir , rohmer fashions the sort of delicate , articulate character- and- relationship study he's favored for decades . "
p1733
g2
tp1734
a(S'by-the-numbers yarn . '
p1735
g9
tp1736
a(S'engagingly captures the maddening and magnetic ebb and flow of friendship . '
p1737
g2
tp1738
a(S"it all looks and plays like a $40 million version of a game you're more likely to enjoy on a computer . "
p1739
g9
tp1740
a(S"there's no point in extracting the bare bones of byatt's plot for purposes of bland hollywood romance . "
p1741
g9
tp1742
a(S"dignified ceo's meet at a rustic retreat and pee against a tree . can you bear the laughter ? "
p1743
g9
tp1744
a(S"not too far below the gloss you can still feel director denis villeneuve's beating heart and the fondness he has for his characters . "
p1745
g2
tp1746
a(S'with or without ballast tanks , k-19 sinks to a harrison ford low . '
p1747
g9
tp1748
a(S'a mostly intelligent , engrossing and psychologically resonant suspenser . '
p1749
g2
tp1750
a(S'sets animation back 30 years , musicals back 40 years and judaism back at least 50 . '
p1751
g9
tp1752
a(S'the film can depress you about life itself . '
p1753
g9
tp1754
a(S"it's an 88-minute highlight reel that's 86 minutes too long . "
p1755
g9
tp1756
a(S"payami tries to raise some serious issues about iran's electoral process , but the result is a film that's about as subtle as a party political broadcast . "
p1757
g9
tp1758
a(S'such a bad movie that its luckiest viewers will be seated next to one of those ignorant pinheads who talk throughout the show . '
p1759
g9
tp1760
a(S"as an actress , madonna is one helluva singer . as the mediterranean sparkles , 'swept away' sinks . "
p1761
g9
tp1762
a(S"denis and co-writer michele petin's impeccable screenplay penetrates with a rawness that that is both unflinching and tantalizing . lead provocatuers testud and parmentier give superlative performances"
p1763
g2
tp1764
a(S'in the telling of a story largely untold , bui chooses to produce something that is ultimately suspiciously familiar . '
p1765
g9
tp1766
a(S'at heart the movie is a deftly wrought suspense yarn whose richer shadings work as coloring rather than substance . '
p1767
g2
tp1768
a(S'has it ever been possible to say that williams has truly inhabited a character ? it is now . '
p1769
g2
tp1770
a(S'it gets bogged down by hit-and-miss topical humour before getting to the truly good stuff . '
p1771
g9
tp1772
a(S'confusion is one of my least favourite emotions , especially when i have to put up with 146 minutes of it . '
p1773
g9
tp1774
a(S'[ " take care of my cat " ] is an honestly nice little film that takes us on an examination of young adult life in urban south korea through the hearts and minds of the five principals . '
p1775
g2
tp1776
a(S'a cop story that understands the medium amazingly well . '
p1777
g2
tp1778
a(S"and if you appreciate the one-sided theme to lawrence's over-indulgent tirade , then knock yourself out and enjoy the big screen postcard that is a self-glorified martin lawrence lovefest . if you are willing to do this , then you so crazy ! "
p1779
g9
tp1780
a(S'while the performances are often engaging , this loose collection of largely improvised numbers would probably have worked better as a one-hour tv documentary . '
p1781
g9
tp1782
a(S'its weighty themes are too grave for youngsters , but the story is too steeped in fairy tales and other childish things to appeal much to teenagers . '
p1783
g9
tp1784
a(S'a fascinating and fun film . '
p1785
g2
tp1786
a(S'its plot and animation offer daytime tv serviceability , but little more . '
p1787
g9
tp1788
a(S'dark and disturbing , but also surprisingly funny . '
p1789
g2
tp1790
a(S'bigelow handles the nuclear crisis sequences evenly but milks drama when she should be building suspense , and drags out too many scenes toward the end that should move quickly . '
p1791
g9
tp1792
a(S'the country bears has no scenes that will upset or frighten young viewers . unfortunately , there is almost nothing in this flat effort that will amuse or entertain them , either . '
p1793
g9
tp1794
a(S'too sincere to exploit its subjects and too honest to manipulate its audience . '
p1795
g2
tp1796
a(S'a charming yet poignant tale of the irrevocable ties that bind . '
p1797
g2
tp1798
a(S'one of the greatest family-oriented , fantasy-adventure movies ever . '
p1799
g2
tp1800
a(S'haneke challenges us to confront the reality of sexual aberration . '
p1801
g2
tp1802
a(S'plodding , poorly written , murky and weakly acted , the picture feels as if everyone making it lost their movie mojo . '
p1803
g9
tp1804
a(S'there are few things more frustrating to a film buff than seeing an otherwise good movie marred beyond redemption by a disastrous ending . '
p1805
g9
tp1806
a(S"the movie attempts to mine laughs from a genre -- the gangster/crime comedy -- that wore out its welcome with audiences several years ago , and its cutesy reliance on movie-specific cliches isn't exactly endearing . "
p1807
g9
tp1808
a(S'every so often a film comes along that is so insanely stupid , so awful in so many ways that watching it leaves you giddy . half past dead is just such an achievement . '
p1809
g9
tp1810
a(S' . . . bibbidy-bobbidi-bland . '
p1811
g9
tp1812
a(S"parker should be commended for taking a fresh approach to familiar material , but his determination to remain true to the original text leads him to adopt a somewhat mannered tone . . . that ultimately dulls the human tragedy at the story's core . "
p1813
g9
tp1814
a(S'foster nails the role , giving a tight , focused performance illuminated by shards of feeling . '
p1815
g2
tp1816
a(S"about the only thing to give the movie points for is bravado -- to take an entirely stale concept and push it through the audience's meat grinder one more time . "
p1817
g9
tp1818
a(S"lucas has in fact come closer than anyone could desire to the cheap , graceless , hackneyed sci-fi serials of the '30s and '40s . "
p1819
g9
tp1820
a(S"if you love reading and/or poetry , then by all means check it out . you'll probably love it . "
p1821
g2
tp1822
a(S'children of the century , though well dressed and well made , ultimately falls prey to the contradiction that afflicts so many movies about writers . '
p1823
g9
tp1824
a(S'quite funny for the type of movie it is . . . '
p1825
g2
tp1826
a(S'the director has injected self-consciousness into the proceedings at every turn . the results are far more alienating than involving . '
p1827
g9
tp1828
a(S'a historical epic with the courage of its convictions about both scope and detail . '
p1829
g2
tp1830
a(S"the additional storyline is interesting and entertaining , but it doesn't have the same magical quality as the beginning of the story . i like the new footage and still love the old stuff . "
p1831
g2
tp1832
a(S"the best movie of its kind since 'brazil . ' lucas , take notes . this is how you use special effects . "
p1833
g2
tp1834
a(S"die another day is only intermittently entertaining but it's hard not to be a sucker for its charms , or perhaps it's just impossible not to feel nostalgia for movies you grew up with . "
p1835
g9
tp1836
a(S"despite its many infuriating flaws -- not the least of which is amy's self-absorbed personality -- amy's o's honesty will win you over . "
p1837
g2
tp1838
a(S'effectively feeds our senses with the chilling sights and sounds from within the camp to create a completely numbing experience . '
p1839
g2
tp1840
a(S"when a movie asks you to feel sorry for mick jagger's sex life , it already has one strike against it . "
p1841
g9
tp1842
a(S'all but the most persnickety preteens should enjoy this nonthreatening but thrilling adventure . '
p1843
g2
tp1844
a(S"'you'll laugh for not quite and hour and a half , but come out feeling strangely unsatisfied . you'll feel like you ate a reeses without the peanut butter . . . '"
p1845
g9
tp1846
a(S" . . . plays like a badly edited , 91-minute trailer ( and ) the director can't seem to get a coherent rhythm going . in fact , it doesn't even seem like she tried . "
p1847
g9
tp1848
a(S'it leers , offering next to little insight into its intriguing subject . '
p1849
g9
tp1850
a(S'an enchanting spectacular for potter fans anxious to ride the hogwarts express toward a new year of magic and mischief . '
p1851
g2
tp1852
a(S'one scarcely needs the subtitles to enjoy this colorful action farce . '
p1853
g2
tp1854
a(S'sitting through the last reel ( spoiler alert ! ) is significantly less charming than listening to a four-year-old with a taste for exaggeration recount his halloween trip to the haunted house . '
p1855
g9
tp1856
a(S'an exhausting family drama about a porcelain empire and just as hard a flick as its subject matter . '
p1857
g9
tp1858
a(S"[director peter] jackson and his crew have so steeped themselves in the majesty of tolkien's writing that every frame produces new joys , whether you're a fan of the books or not . "
p1859
g2
tp1860
a(S"'yes , that's right : it's forrest gump , angel of death . '"
p1861
g9
tp1862
a(S'the movie , like bartleby , is something of a stiff -- an extra-dry office comedy that seems twice as long as its 83 minutes . '
p1863
g9
tp1864
a(S'execrable . '
p1865
g9
tp1866
a(S'this mess of a movie is nothing short of a travesty of a transvestite comedy . '
p1867
g9
tp1868
a(S'an involving true story of a chinese actor who takes up drugs and winds up in an institution--acted mostly by the actual people involved . '
p1869
g2
tp1870
a(S"it's the type of stunt the academy loves : a powerful political message stuffed into an otherwise mediocre film . "
p1871
g9
tp1872
a(S'the characters are never more than sketches . . . which leaves any true emotional connection or identification frustratingly out of reach . '
p1873
g9
tp1874
a(S"is office work really as alienating as 'bartleby' so effectively makes it ? "
p1875
g2
tp1876
a(S'why spend $9 on the same stuff you can get for a buck or so in that greasy little vidgame pit in the theater lobby ? '
p1877
g9
tp1878
a(S'aan opportunity wasted . '
p1879
g9
tp1880
a(S"jir\xed hubac's script is a gem . his characters are engaging , intimate and the dialogue is realistic and greatly moving . the scope of the silberstein family is large and we grow attached to their lives , full of strength , warmth and vitality . . "
p1881
g2
tp1882
a(S"it's not hateful . it's simply stupid , irrelevant and deeply , truly , bottomlessly cynical . "
p1883
g9
tp1884
a(S'to the civilized mind , a movie like ballistic : ecks vs . sever is more of an ordeal than an amusement . '
p1885
g9
tp1886
a(S'using his audience as a figurative port-of-call , dong pulls his even-handed ideological ship to their dock for unloading , before he continues his longer journey still ahead . '
p1887
g2
tp1888
a(S'the film is exhilarating to watch because sandler , liberated from the constraints of formula , reveals unexpected depths as an actor . '
p1889
g2
tp1890
a(S'confuses its message with an ultimate desire to please , and contorting itself into an idea of expectation is the last thing any of these three actresses , nor their characters , deserve . '
p1891
g9
tp1892
a(S'see clockstoppers if you have nothing better to do with 94 minutes . but be warned , you too may feel time has decided to stand still . or that the battery on your watch has died . '
p1893
g9
tp1894
a(S"the movie's something-borrowed construction feels less the product of loving , well integrated homage and more like a mere excuse for the wan , thinly sketched story . killing time , that's all that's going on here . "
p1895
g9
tp1896
a(S'i like it . no , i hate it . no , i love it . . . hell , i dunno . '
p1897
g9
tp1898
a(S'britney has been delivered to the big screen safe and sound , the way we like our 20-year-old superstar girls to travel on the fame freeway . '
p1899
g2
tp1900
a(S'in its ragged , cheap and unassuming way , the movie works . '
p1901
g2
tp1902
a(S'such an incomprehensible mess that it feels less like bad cinema than like being stuck in a dark pit having a nightmare about bad cinema . '
p1903
g9
tp1904
a(S'fails as a dystopian movie , as a retooling of fahrenheit 451 , and even as a rip-off of the matrix . '
p1905
g9
tp1906
a(S'this is what imax was made for : strap on a pair of 3-d goggles , shut out the real world , and take a vicarious voyage to the last frontier -- space . '
p1907
g2
tp1908
a(S'though it is by no means his best work , laissez-passer is a distinguished and distinctive effort by a bona-fide master , a fascinating film replete with rewards to be had by all willing to make the effort to reap them . '
p1909
g2
tp1910
a(S"although the sequel has all the outward elements of the original , the first film's lovely flakiness is gone , replaced by the forced funniness found in the dullest kiddie flicks . "
p1911
g9
tp1912
a(S'a deceivingly simple film , one that grows in power in retrospect . '
p1913
g2
tp1914
a(S'an imaginative comedy/thriller . '
p1915
g2
tp1916
a(S'there are just enough twists in the tale to make it far more satisfying than almost any horror film in recent memory . '
p1917
g2
tp1918
a(S'australian actor/director john polson and award-winning english cinematographer giles nuttgens make a terrific effort at disguising the obvious with energy and innovation . '
p1919
g2
tp1920
a(S"it's sincere to a fault , but , unfortunately , not very compelling or much fun . "
p1921
g9
tp1922
a(S"although very much like the first movie based on j . k . rowling's phenomenal fantasy best sellers , this second go-round possesses a quite pleasing , headlong thrust and a likably delinquent attitude . "
p1923
g2
tp1924
a(S'this romantic thriller is steeped in the atmosphere of wartime england , and ably captures the speech patterns , moral codes and ideals of the 1940s . '
p1925
g2
tp1926
a(S'a movie just for friday fans , critics be damned . if you already like this sort of thing , this is that sort of thing all over again . '
p1927
g9
tp1928
a(S' . . . always remains movingly genuine . '
p1929
g2
tp1930
a(S"it's a great deal of sizzle and very little steak . but what spectacular sizzle it is ! . . . in this incarnation its fizz is infectious . "
p1931
g2
tp1932
a(S"a moody horror/thriller elevated by deft staging and the director's well-known narrative gamesmanship . "
p1933
g2
tp1934
a(S"here's my advice , kev . start reading your scripts before signing that dotted line . "
p1935
g9
tp1936
a(S'guaranteed to move anyone who ever shook , rattled , or rolled . '
p1937
g2
tp1938
a(S'watching the powerpuff girls movie , my mind kept returning to one anecdote for comparison : the cartoon in japan that gave people seizures . '
p1939
g9
tp1940
a(S"an utterly compelling 'who wrote it' in which the reputation of the most famous author who ever lived comes into question . "
p1941
g2
tp1942
a(S'it winds up moving in many directions as it searches ( vainly , i think ) for something fresh to say . '
p1943
g9
tp1944
a(S"as an actor's showcase , hart's war has much to recommend it , even if the top-billed willis is not the most impressive player . as a story of dramatic enlightenment , the screenplay by billy ray and terry george leaves something to be desired . "
p1945
g9
tp1946
a(S'a passable romantic comedy , in need of another couple of passes through the word processor . '
p1947
g9
tp1948
a(S'between the drama of cube ? s personal revelations regarding what the shop means in the big picture , iconic characters gambol fluidly through the story , with charming results . '
p1949
g2
tp1950
a(S"a muddled limp biscuit of a movie , a vampire soap opera that doesn't make much sense even on its own terms . "
p1951
g9
tp1952
a(S"[h]ad i suffered and bled on the hard ground of ia drang , i'd want something a bit more complex than we were soldiers to be remembered by . "
p1953
g9
tp1954
a(S'a high-minded snoozer . '
p1955
g9
tp1956
a(S'the tenderness of the piece is still intact . '
p1957
g2
tp1958
a(S"the story is also as unoriginal as they come , already having been recycled more times than i'd care to count . "
p1959
g9
tp1960
a(S'[gai] comes closer to any actress i can remember to personifying independence in its purest and , yes , most intimidating form . '
p1961
g2
tp1962
a(S'in the book-on-tape market , the film of " the kid stays in the picture " would be an abridged edition'
p1963
g9
tp1964
a(S'this cuddly sequel to the 1999 hit is a little more visually polished , a little funnier , and a little more madcap . '
p1965
g2
tp1966
a(S"as a revenge thriller , the movie is serviceable , but it doesn't really deliver the delicious guilty pleasure of the better film versions . "
p1967
g2
tp1968
a(S"the lack of naturalness makes everything seem self-consciously poetic and forced . . . it's a pity that [nelson's] achievement doesn't match his ambition . "
p1969
g9
tp1970
a(S'there are a few stabs at absurdist comedy . . . but mostly the humor is of the sweet , gentle and occasionally cloying kind that has become an iranian specialty . '
p1971
g2
tp1972
a(S'the french director has turned out nearly 21/2 hours of unfocused , excruciatingly tedious cinema that , half an hour in , starts making water torture seem appealing . '
p1973
g9
tp1974
a(S'this is a startling film that gives you a fascinating , albeit depressing view of iranian rural life close to the iraqi border . '
p1975
g2
tp1976
a(S'a film with a great premise but only a great premise . '
p1977
g9
tp1978
a(S'a depressing confirmation of everything those of us who don\'t object to the description " unelected " have suspected all along : george w . bush is an incurious , uncharismatic , overgrown frat boy with a mean streak a mile wide . '
p1979
g2
tp1980
a(S'vividly conveys both the pitfalls and the pleasures of over-the-top love . '
p1981
g2
tp1982
a(S"it's just a little too self-satisfied . "
p1983
g9
tp1984
a(S"stephen earnhart's homespun documentary mule skinner blues has nothing but love for its posse of trailer park denizens . "
p1985
g2
tp1986
a(S'take care of my cat offers a refreshingly different slice of asian cinema . '
p1987
g2
tp1988
a(S'day is not a great bond movie , but it is a good bond movie , which still makes it much better than your typical bond knock-offs . '
p1989
g2
tp1990
a(S"while it would be easy to give crush the new title of two weddings and a funeral , it's a far more thoughtful film than any slice of hugh grant whimsy . "
p1991
g2
tp1992
a(S'nicely serves as an examination of a society in transition . '
p1993
g2
tp1994
a(S"the story is so light and sugary that were it a macy's thanksgiving day parade balloon , extra heavy-duty ropes would be needed to keep it from floating away . "
p1995
g9
tp1996
a(S'mild , meandering teen flick . '
p1997
g9
tp1998
a(S'ultimately . . . the movie is too heady for children , and too preachy for adults . '
p1999
g9
tp2000
a(S"rare is the 'urban comedy' that even attempts the insight and honesty of this disarming indie . "
p2001
g2
tp2002
a(S'ms . fulford-wierzbicki is almost spooky in her sulky , calculating lolita turn . '
p2003
g2
tp2004
a(S'as the story moves inexorably through its seven day timeframe , the picture becomes increasingly mesmerizing . '
p2005
g2
tp2006
a(S"farrell . . . thankfully manages to outshine the role and successfully plays the foil to willis's world-weary colonel . "
p2007
g2
tp2008
a(S'in a normal screen process , these bromides would be barely enough to sustain an interstitial program on the discovery channel . but in imax 3-d , the clich\xe9s disappear into the vertiginous perspectives opened up by the photography . '
p2009
g2
tp2010
a(S'the criticism never rises above easy , cynical potshots at morally bankrupt characters . . . '
p2011
g9
tp2012
a(S'these two are generating about as much chemistry as an iraqi factory poised to receive a un inspector . '
p2013
g9
tp2014
a(S'does what a fine documentary does best : it extends a warm invitation into an unfamiliar world , then illuminates it fully and allows the larger implications of the journey to sink in unobtrusively . '
p2015
g2
tp2016
a(S"if it's possible for a sequel to outshine the original , then sl2 does just that . "
p2017
g2
tp2018
a(S'the cameo-packed , m : i-2-spoofing title sequence is the funniest 5 minutes to date in this spy comedy franchise . . . then mike myers shows up and ruins everything . '
p2019
g9
tp2020
a(S'that the chuck norris " grenade gag " occurs about 7 times during windtalkers is a good indication of how serious-minded the film is . '
p2021
g9
tp2022
a(S'this slow-moving swedish film offers not even a hint of joy , preferring to focus on the humiliation of martin as he defecates in bed and urinates on the plants at his own birthday party . '
p2023
g9
tp2024
a(S'an unabashedly schmaltzy and thoroughly enjoyable true story . '
p2025
g2
tp2026
a(S"only an epic documentary could get it all down , and spike lee's jim brown : all american at long last gives its subject a movie worthy of his talents . "
p2027
g2
tp2028
a(S'there are enough throwaway references to faith and rainbows to plant smile-button faces on that segment of the populace that made a walk to remember a niche hit . '
p2029
g9
tp2030
a(S"emerges as something rare , an issue movie that's so honest and keenly observed that it doesn't feel like one . "
p2031
g2
tp2032
a(S'what started out as a taut contest of wills between bacon and theron , deteriorates into a protracted and borderline silly chase sequence . '
p2033
g9
tp2034
a(S'far from perfect , but its heart is in the right place . . . innocent and well-meaning . '
p2035
g2
tp2036
a(S'post 9/11 the philosophical message of " personal freedom first " might not be as palatable as intended . '
p2037
g2
tp2038
a(S' . . . there are enough moments of heartbreaking honesty to keep one glued to the screen . '
p2039
g2
tp2040
a(S'a light , engaging comedy that fumbles away almost all of its accumulated enjoyment with a crucial third act miscalculation . '
p2041
g9
tp2042
a(S'just the labour involved in creating the layered richness of the imagery in this chiaroscuro of madness and light is astonishing . '
p2043
g2
tp2044
a(S"it's a glorified sitcom , and a long , unfunny one at that . "
p2045
g9
tp2046
a(S"it's not so much enjoyable to watch as it is enlightening to listen to new sides of a previous reality , and to visit with some of the people who were able to make an impact in the theater world . "
p2047
g2
tp2048
a(S"if there's nothing fresh about wannabes , which was written by mr . demeo , who produced and directed the film with charles a . addessi , much of the time the movie feels authentic . "
p2049
g2
tp2050
a(S"it's not exactly worth the bucks to expend the full price for a date , but when it comes out on video , it's well worth a rental . "
p2051
g9
tp2052
a(S"what's most striking about this largely celebratory film . . . is the sense of isolation that permeates these bastions of individuality in an ikea world . "
p2053
g2
tp2054
a(S"[drumline] is entertaining for what it does , and admirable for what it doesn't do . "
p2055
g2
tp2056
a(S"as shaky as the plot is , kaufman's script is still memorable for some great one-liners . "
p2057
g2
tp2058
a(S"this is one of polanski's best films . "
p2059
g2
tp2060
a(S"in the name of an allegedly inspiring and easily marketable flick , the emperor's club turns a blind eye to the very history it pretends to teach . "
p2061
g9
tp2062
a(S"led by griffin's smartly nuanced performance and enthusiasm , the cast has a lot of fun with the material . "
p2063
g2
tp2064
a(S"if this movie were a book , it would be a page-turner , you can't wait to see what happens next . "
p2065
g2
tp2066
a(S'a lack of thesis makes maryam , in the end , play out with the intellectual and emotional impact of an after-school special . '
p2067
g9
tp2068
a(S"pascale bailly's rom-com provides am\xe9lie's audrey tautou with another fabuleux destin -- i . e . , a banal spiritual quest . "
p2069
g9
tp2070
a(S'a journey through memory , a celebration of living , and a sobering rumination on fatality , classism , and ignorance . '
p2071
g2
tp2072
a(S"rymer doesn't trust laughs -- and doesn't conjure proper respect for followers of the whole dead-undead genre , who deserve more from a vampire pic than a few shrieky special effects . "
p2073
g9
tp2074
a(S'this is a film brimming with detail and nuance and one that speaks volumes about the ability of the human spirit to find solace in events that could easily crush it forever . '
p2075
g2
tp2076
a(S"avary's film never quite emerges from the shadow of ellis' book . "
p2077
g9
tp2078
a(S'beware the quirky brit-com . they can and will turn on a dime from oddly humorous to tediously sentimental . '
p2079
g9
tp2080
a(S"an enthralling , playful film that constantly frustrates our desire to know the 'truth' about this man , while deconstructing the very format of the biography in a manner that derrida would doubtless give his blessing to . "
p2081
g2
tp2082
a(S'all in all , road to perdition is more in love with strangeness than excellence . '
p2083
g9
tp2084
a(S"although it bangs a very cliched drum at times , this crowd-pleaser's fresh dialogue , energetic music , and good-natured spunk are often infectious . "
p2085
g2
tp2086
a(S'parker updates the setting in an attempt to make the film relevant today , without fully understanding what it was that made the story relevant in the first place . '
p2087
g9
tp2088
a(S'solid , lump-in-the-throat family entertainment that derives its power by sticking to the facts . '
p2089
g2
tp2090
a(S"empire can't make up its mind whether it wants to be a gangster flick or an art film . it doesn't work as either . "
p2091
g9
tp2092
a(S'full of the kind of obnoxious chitchat that only self-aware neurotics engage in . '
p2093
g9
tp2094
a(S"it wraps up a classic mother/daughter struggle in recycled paper with a shiny new bow and while the audience can tell it's not all new , at least it looks pretty . "
p2095
g9
tp2096
a(S'the good girl is a film in which the talent is undeniable but the results are underwhelming . '
p2097
g9
tp2098
a(S'calculated swill . '
p2099
g9
tp2100
a(S"the saturation bombing of reggio's images and glass' evocative music . . . ultimately leaves viewers with the task of divining meaning . "
p2101
g2
tp2102
a(S'this flat run at a hip-hop tootsie is so poorly paced you could fit all of pootie tang in between its punchlines . '
p2103
g9
tp2104
a(S"just because a walk to remember is shrewd enough to activate girlish tear ducts doesn't mean it's good enough for our girls . "
p2105
g9
tp2106
a(S'though the film is well-intentioned , one could rent the original and get the same love story and parable . '
p2107
g9
tp2108
a(S"human nature , in short , isn't nearly as funny as it thinks it is ; neither is it as smart . "
p2109
g9
tp2110
a(S' ( wendigo is ) why we go to the cinema : to be fed through the eye , the heart , the mind . '
p2111
g2
tp2112
a(S'a slick , skillful little horror film . '
p2113
g2
tp2114
a(S"george clooney proves he's quite a talented director and sam rockwell shows us he's a world-class actor with confessions of a dangerous mind . "
p2115
g2
tp2116
a(S"there's an excellent 90-minute film here ; unfortunately , it runs for 170 . "
p2117
g9
tp2118
a(S'writer-director burger imaginatively fans the embers of a dormant national grief and curiosity that has calcified into chronic cynicism and fear . '
p2119
g2
tp2120
a(S'eight legged freaks ? no big hairy deal . '
p2121
g9
tp2122
a(S'the setting turns out to be more interesting than any of the character dramas , which never reach satisfying conclusions . '
p2123
g9
tp2124
a(S'a solidly seaworthy chiller . '
p2125
g2
tp2126
a(S'not so much farcical as sour . '
p2127
g9
tp2128
a(S'daring , mesmerizing and exceedingly hard to forget . '
p2129
g2
tp2130
a(S'a remarkable 179-minute meditation on the nature of revolution . '
p2131
g2
tp2132
a(S'effective but too-tepid biopic'
p2133
g2
tp2134
a(S"like mike doesn't win any points for originality . it does succeed by following a feel-good formula with a winning style , and by offering its target audience of urban kids some welcome role models and optimism . "
p2135
g2
tp2136
a(S'a model of what films like this should be like . '
p2137
g2
tp2138
a(S"it's impossible to even categorize this as a smutty guilty pleasure . "
p2139
g9
tp2140
a(S'watching the chemistry between freeman and judd , however , almost makes this movie worth seeing . almost . '
p2141
g9
tp2142
a(S'despite suffering a sense-of-humour failure , the man who wrote rocky does not deserve to go down with a ship as leaky as this . '
p2143
g9
tp2144
a(S"daughter from danang is a film that should be seen by all , especially those who aren't aware of , or have forgotten about the unmentioned victims of war . "
p2145
g2
tp2146
a(S'attal mixes comedy with a serious exploration of ego and jealousy within a seemingly serene marriage . '
p2147
g2
tp2148
a(S'a bowel-curdling , heart-stopping recipe for terror . '
p2149
g2
tp2150
a(S'an easy watch , except for the annoying demeanour of its lead character . '
p2151
g9
tp2152
a(S'the whole cast looks to be having so much fun with the slapstick antics and silly street patois , tossing around obscure expressions like bellini and mullinski , that the compact 86 minutes breezes by . '
p2153
g2
tp2154
a(S'the best thing the film does is to show us not only what that mind looks like , but how the creative process itself operates . '
p2155
g2
tp2156
a(S"none of this is very original , and it isn't particularly funny . "
p2157
g9
tp2158
a(S'there are moments it can be heart-rending in an honest and unaffected ( and gentle ) way . '
p2159
g2
tp2160
a(S"it's amazingly perceptive in its subtle , supportive but unsentimental look at the marks family . "
p2161
g2
tp2162
a(S'elling , portrayed with quiet fastidiousness by per christian ellefsen , is a truly singular character , one whose frailties are only slightly magnified versions of the ones that vex nearly everyone . '
p2163
g2
tp2164
a(S'a thoughtful , moving piece that faces difficult issues with honesty and beauty . '
p2165
g2
tp2166
a(S"makmalbaf follows a resolutely realistic path in this uncompromising insight into the harsh existence of the kurdish refugees of iran's borderlands . "
p2167
g2
tp2168
a(S'the acting is fine but the script is about as interesting as a recording of conversations at the wal-mart checkout line . '
p2169
g9
tp2170
a(S'this misty-eyed southern nostalgia piece , in treading the line between sappy and sanguine , winds up mired in tear-drenched quicksand . '
p2171
g9
tp2172
a(S'soderbergh seems capable only of delivering artfully lighted , earnest inquiries that lack the kind of genuine depth that would make them redeemable . '
p2173
g9
tp2174
a(S"this is simply the most fun you'll ever have with a documentary ! "
p2175
g2
tp2176
a(S'a splendid entertainment , young in spirit but accomplished in all aspects with the fullness of spirit and sense of ease that comes only with experience . '
p2177
g2
tp2178
a(S'the code talkers deserved better than a hollow tribute . '
p2179
g9
tp2180
a(S"you leave feeling like you've endured a long workout without your pulse ever racing . "
p2181
g9
tp2182
a(S'a wonderful character-based comedy . '
p2183
g2
tp2184
a(S'manages to be original , even though it rips off many of its ideas . '
p2185
g2
tp2186
a(S' " frailty " has been written so well , that even a simple " goddammit ! " near the end takes on a whole other meaning . '
p2187
g2
tp2188
a(S"a feature-length , r-rated , road-trip version of mama's family . "
p2189
g9
tp2190
a(S"in scope , ambition and accomplishment , children of the century . . . takes kurys' career to a whole new level . "
p2191
g2
tp2192
a(S'given the fact that virtually no one is bound to show up at theatres for it , the project should have been made for the tube . '
p2193
g9
tp2194
a(S'stupid , infantile , redundant , sloppy , over-the-top , and amateurish . yep , it\'s " waking up in reno . " go back to sleep . '
p2195
g9
tp2196
a(S' if the predictability of bland comfort food appeals to you , then the film is a pleasant enough dish . '
p2197
g9
tp2198
a(S'the movie weighs no more than a glass of flat champagne . '
p2199
g9
tp2200
a(S'a piece of mildly entertaining , inoffensive fluff that drifts aimlessly for 90 minutes before lodging in the cracks of that ever-growing category : unembarrassing but unmemorable . '
p2201
g9
tp2202
a(S'clever but not especially compelling . '
p2203
g9
tp2204
a(S'provide[s] nail-biting suspense and credible characters without relying on technology-of-the-moment technique or pretentious dialogue . '
p2205
g2
tp2206
a(S'less-than-compelling documentary of a yiddish theater clan . '
p2207
g9
tp2208
a(S"the actresses may have worked up a back story for the women they portray so convincingly , but viewers don't get enough of that background for the characters to be involving as individuals rather than types . "
p2209
g9
tp2210
a(S'chalk it up to my adoration for both de niro and murphy , but i had a pretty good time with this movie - despite its myriad flaws . '
p2211
g2
tp2212
a(S'simplistic , silly and tedious . '
p2213
g9
tp2214
a(S"it comes off as so silly that you wouldn't be surprised if ba , murdock and rest of the a-team were seen giving chase in a black and red van . "
p2215
g9
tp2216
a(S"cold and scattered , minority report commands interest almost solely as an exercise in gorgeous visuals . that's not vintage spielberg and that , finally , is minimally satisfying . "
p2217
g9
tp2218
a(S"watching harris ham it up while physically and emotionally disintegrating over the course of the movie has a certain poignancy in light of his recent death , but boyd's film offers little else of consequence . "
p2219
g9
tp2220
a(S"who knows what exactly godard is on about in this film , but his words and images don't have to add up to mesmerize you . "
p2221
g2
tp2222
a(S'bogdanich is unashamedly pro-serbian and makes little attempt to give voice to the other side . '
p2223
g9
tp2224
a(S'eventually arrives at its heart , as simple self-reflection meditation . '
p2225
g9
tp2226
a(S"what soured me on the santa clause 2 was that santa bumps up against 21st century reality so hard , it's icky . "
p2227
g9
tp2228
a(S"you won't believe much of it , but you will laugh at the audacity , at the who's who casting and the sheer insanity of it all . "
p2229
g2
tp2230
a(S"it's often infuriatingly glib and posturing , and yet it has been made with great evident care and manages to deliver up the man in a way to arouse further curiosity in even the most unknowing viewer . "
p2231
g2
tp2232
a(S'an achingly enthralling premise , the film is hindered by uneven dialogue and plot lapses . '
p2233
g9
tp2234
a(S"it sounds sick and twisted , but the miracle of shainberg's film is that it truly is romance"
p2235
g2
tp2236
a(S"it's a humble effort , but spiced with wry humor and genuine pathos , especially between morgan and redgrave . "
p2237
g2
tp2238
a(S'every now and again , a movie comes along to remind us of how very bad a motion picture can truly be . frank mcklusky c . i . is that movie ! '
p2239
g9
tp2240
a(S"occasionally melodramatic , it's also extremely effective . "
p2241
g2
tp2242
a(S'a feel-good picture in the best sense of the term . '
p2243
g2
tp2244
a(S' . . . has freaky scenes where the crew wonder if they\'re ghosts imagining themselves as alive . it\'s a sly wink to the others without becoming a postmodern joke , made creepy by its " men in a sardine can " warped logic . '
p2245
g2
tp2246
a(S'the animated subplot keenly depicts the inner struggles of our adolescent heroes - insecure , uncontrolled , and intense . '
p2247
g2
tp2248
a(S"'ejemplo de una cinta en que no importa el talento de su reparto o lo interesante que pudo haber resultado su premisa , pues el resultado es francamente aburrido y , por momentos , deplorable . '"
p2249
g9
tp2250
a(S"this is the best american movie about troubled teens since 1998's whatever . "
p2251
g2
tp2252
a(S"it might be tempting to regard mr . andrew and his collaborators as oddballs , but mr . earnhart's quizzical , charming movie allows us to see them , finally , as artists . "
p2253
g2
tp2254
a(S"it's like an all-star salute to disney's cheesy commercialism . "
p2255
g9
tp2256
a(S"painful to watch , but viewers willing to take a chance will be rewarded with two of the year's most accomplished and riveting film performances . "
p2257
g2
tp2258
a(S"over-the-top and a bit ostentatious , this is a movie that's got oodles of style and substance . "
p2259
g2
tp2260
a(S"watching haneke's film is , aptly enough , a challenge and a punishment . but watching huppert , a great actress tearing into a landmark role , is riveting . "
p2261
g2
tp2262
a(S'skip the film and buy the philip glass soundtrack cd . '
p2263
g9
tp2264
a(S'must be seen to be believed . '
p2265
g2
tp2266
a(S'[anderson] uses a hit-or-miss aesthetic that hits often enough to keep the film entertaining even if none of it makes a lick of sense . '
p2267
g2
tp2268
a(S"alarms for duvall's throbbing sincerity and his elderly propensity for patting people while he talks . "
p2269
g9
tp2270
a(S'this is a fudged opportunity of gigantic proportions -- a lunar mission with no signs of life . '
p2271
g9
tp2272
a(S'a non-britney person might survive a screening with little harm done , except maybe for the last 15 minutes , which are as maudlin as any after-school special you can imagine . '
p2273
g9
tp2274
a(S'as a director , mr . ratliff wisely rejects the temptation to make fun of his subjects . '
p2275
g2
tp2276
a(S'at its best early on as it plays the culture clashes between the brothers . '
p2277
g2
tp2278
a(S"watching austin powers in goldmember is like binging on cotton candy . it's sweet and fluffy at the time , but it may leave you feeling a little sticky and unsatisfied . "
p2279
g9
tp2280
a(S'despite a performance of sustained intelligence from stanford and another of subtle humour from bebe neuwirth , as an older woman who seduces oscar , the film founders on its lack of empathy for the social milieu - rich new york intelligentsia - and its off'
p2281
g9
tp2282
a(S'though mama takes a bit too long to find its rhythm and a third-act plot development is somewhat melodramatic , its ribald humor and touching nostalgia are sure to please anyone in search of a jules and jim for the new millennium . '
p2283
g2
tp2284
a(S"i didn't laugh . i didn't smile . i survived . "
p2285
g9
tp2286
a(S'the four feathers is definitely horse feathers , but if you go in knowing that , you might have fun in this cinematic sandbox . '
p2287
g9
tp2288
a(S'sometimes , nothing satisfies like old-fashioned swashbuckling . and in this regard , on guard delivers . '
p2289
g2
tp2290
a(S'none of this so-called satire has any sting to it , as if woody is afraid of biting the hand that has finally , to some extent , warmed up to him . '
p2291
g9
tp2292
a(S"it's such a mechanical endeavor [that] it never bothers to question why somebody might devote time to see it . "
p2293
g9
tp2294
a(S'for a good chunk of its running time , trapped is an effective and claustrophobic thriller . '
p2295
g2
tp2296
a(S'though the opera itself takes place mostly indoors , jacquot seems unsure of how to evoke any sort of naturalism on the set . '
p2297
g9
tp2298
a(S'two generations within one family test boundaries in this intelligent and restrained coming-of-age drama . '
p2299
g2
tp2300
a(S'labute was more fun when his characters were torturing each other psychologically and talking about their genitals in public . '
p2301
g9
tp2302
a(S'a romantic comedy that operates by the rules of its own self-contained universe . '
p2303
g2
tp2304
a(S"absurdities and clich\xe9s accumulate like lint in a fat man's navel . "
p2305
g9
tp2306
a(S'watching beanie and his gang put together his slasher video from spare parts and borrowed materials is as much fun as it must have been for them to make it . '
p2307
g2
tp2308
a(S"few of the increasingly far-fetched events that first-time writer-director neil burger follows up with are terribly convincing , which is a pity , considering barry's terrific performance . "
p2309
g9
tp2310
a(S'this is the kind of movie during which you want to bang your head on the seat in front of you , at its cluelessness , at its idiocy , at its utterly misplaced earnestness . '
p2311
g9
tp2312
a(S'an intriguing and entertaining introduction to johnson . '
p2313
g2
tp2314
a(S"those outside show business will enjoy a close look at people they don't really want to know . "
p2315
g2
tp2316
a(S"exactly what you'd expect from a guy named kaos . "
p2317
g9
tp2318
a(S'the bland outweighs the nifty , and cletis tout never becomes the clever crime comedy it thinks it is . '
p2319
g9
tp2320
a(S"it's a very tasteful rock and roll movie . you could put it on a coffee table anywhere . "
p2321
g9
tp2322
a(S'digital-video documentary about stand-up comedians is a great glimpse into a very different world . '
p2323
g2
tp2324
a(S"a few nonbelievers may rethink their attitudes when they see the joy the characters take in this creed , but skeptics aren't likely to enter the theater . "
p2325
g9
tp2326
a(S'as bundy , michael reilly burke ( octopus 2 : river of fear ) has just the right amount of charisma and menace . '
p2327
g2
tp2328
a(S"forget the misleading title , what's with the unexplained baboon cameo ? "
p2329
g9
tp2330
a(S'all the more disquieting for its relatively gore-free allusions to the serial murders , but it falls down in its attempts to humanize its subject . '
p2331
g9
tp2332
a(S'there is so much plodding sensitivity . '
p2333
g9
tp2334
a(S'[n]o matter how much good will the actors generate , showtime eventually folds under its own thinness . '
p2335
g9
tp2336
a(S"possession is elizabeth barrett browning meets nancy drew , and it's directed by . . . neil labute . hmm . "
p2337
g2
tp2338
a(S'this insightful , oscar-nominated documentary , in which children on both sides of the ever-escalating conflict have their say away from watchful parental eyes , gives peace yet another chance . '
p2339
g2
tp2340
a(S"it's a stale , overused cocktail using the same olives since 1962 as garnish . not only is entry number twenty the worst of the brosnan bunch , it's one of the worst of the entire franchise . "
p2341
g9
tp2342
a(S'it makes me feel weird / thinking about all the bad things in the world / like puppies with broken legs / and butterflies that die / and movies starring pop queens'
p2343
g9
tp2344
a(S"disney's live-action division has a history of releasing cinematic flotsam , but this is one occasion when they have unearthed a rare gem . "
p2345
g2
tp2346
a(S"audiences conditioned to getting weepy over saucer-eyed , downy-cheeked moppets and their empathetic caretakers will probably feel emotionally cheated by the film's tart , sugar-free wit . "
p2347
g2
tp2348
a(S"while it is interesting to witness the conflict from the palestinian side , longley's film lacks balance . . . and fails to put the struggle into meaningful historical context . "
p2349
g9
tp2350
a(S"the most memorable moment was when green threw medical equipment at a window ; not because it was particularly funny , but because i had a serious urge to grab the old lady at the end of my aisle's walker and toss it at the screen in frustration . "
p2351
g9
tp2352
a(S'just a collection of this and that -- whatever fills time -- with no unified whole . '
p2353
g9
tp2354
a(S'this bold and lyrical first feature from raja amari expands the pat notion that middle-aged women just wanna have fun into a rousing treatise of sensual empowerment . '
p2355
g2
tp2356
a(S'the direction , by george hickenlooper , has no snap to it , no wiseacre crackle or hard-bitten cynicism . '
p2357
g9
tp2358
a(S'the inherent strength of the material as well as the integrity of the filmmakers gives this coming-of-age story restraint as well as warmth . '
p2359
g2
tp2360
a(S'for all its failed connections , divine secrets of the ya-ya sisterhood is nurturing , in a gauzy , dithering way . '
p2361
g2
tp2362
a(S'the movie is one of the best examples of artful large format filmmaking you are likely to see anytime soon . '
p2363
g2
tp2364
a(S"it's hard to imagine any recent film , independent or otherwise , that makes as much of a mess as this one . "
p2365
g9
tp2366
a(S"while not all transitions to adulthood are so fraught , there's much truth and no small amount of poetry in girls can't swim . "
p2367
g2
tp2368
a(S' . . . unspeakably , unbearably dull , featuring reams of flatly delivered dialogue and a heroine who comes across as both shallow and dim-witted . '
p2369
g9
tp2370
a(S'as saccharine movies go , this is likely to cause massive cardiac arrest if taken in large doses . '
p2371
g9
tp2372
a(S' . . . too sappy for its own good . '
p2373
g9
tp2374
a(S'gloriously goofy ( and gory ) midnight movie stuff . '
p2375
g2
tp2376
a(S'at no point during k-19 : the widowmaker did this viewer feel enveloped in a story that , though meant to be universal in its themes of loyalty , courage and dedication to a common goal , never seems to leave the lot . '
p2377
g9
tp2378
a(S'oedekerk mugs mercilessly , and the genuinely funny jokes are few and far between . '
p2379
g9
tp2380
a(S'a close-to-solid espionage thriller with the misfortune of being released a few decades too late . '
p2381
g9
tp2382
a(S'as pure over-the-top trash , any john waters movie has it beat by a country mile . '
p2383
g9
tp2384
a(S'the tone is balanced , reflective and reasonable . '
p2385
g2
tp2386
a(S"it's tommy's job to clean the peep booths surrounding her , and after viewing this one , you'll feel like mopping up , too . "
p2387
g9
tp2388
a(S' . . . understands that a generation defines its music as much as the music defines a generation . '
p2389
g2
tp2390
a(S"bond-inspired ? certainly . likely to have decades of life as a classic movie franchise ? let's hope not . "
p2391
g9
tp2392
a(S'so genial is the conceit , this is one of those rare pictures that you root for throughout , dearly hoping that the rich promise of the script will be realized on the screen . it never is , not fully . '
p2393
g9
tp2394
a(S"the plot is nothing but boilerplate clich\xe9s from start to finish , and the script assumes that not only would subtlety be lost on the target audience , but that it's also too stupid to realize that they've already seen this exact same movie a hundred times"
p2395
g9
tp2396
a(S'puts on airs of a hal hartley wannabe film -- without the vital comic ingredient of the hilarious writer-director himself . '
p2397
g9
tp2398
a(S'throw smoochy from the train ! '
p2399
g9
tp2400
a(S"bubba ho-tep is a wonderful film with a bravura lead performance by bruce campbell that doesn't deserve to leave the building until everyone is aware of it . "
p2401
g2
tp2402
a.